ARM GAS  C:\Users\joshw\AppData\Local\Temp\cc8bI6We.s 			page 1


   1              		.syntax unified
   2              		.cpu cortex-m0
   3              		.fpu softvfp
   4              		.eabi_attribute 20, 1
   5              		.eabi_attribute 21, 1
   6              		.eabi_attribute 23, 3
   7              		.eabi_attribute 24, 1
   8              		.eabi_attribute 25, 1
   9              		.eabi_attribute 26, 1
  10              		.eabi_attribute 30, 1
  11              		.eabi_attribute 34, 0
  12              		.eabi_attribute 18, 4
  13              		.thumb
  14              		.syntax unified
  15              		.file	"heartrate.c"
  16              		.text
  17              	.Ltext0:
  18              		.cfi_sections	.debug_frame
  19              		.section	.text.averageDCEstimator,"ax",%progbits
  20              		.align	2
  21              		.global	averageDCEstimator
  22              		.code	16
  23              		.thumb_func
  24              		.type	averageDCEstimator, %function
  25              	averageDCEstimator:
  26              	.LFB33:
  27              		.file 1 "heartrate.c"
   1:heartrate.c   **** /* ========================================
   2:heartrate.c   ****  *
   3:heartrate.c   ****  * Copyright YOUR COMPANY, THE YEAR
   4:heartrate.c   ****  * All Rights Reserved
   5:heartrate.c   ****  * UNPUBLISHED, LICENSED SOFTWARE.
   6:heartrate.c   ****  *
   7:heartrate.c   ****  * CONFIDENTIAL AND PROPRIETARY INFORMATION
   8:heartrate.c   ****  * WHICH IS THE PROPERTY OF your company.
   9:heartrate.c   ****  *
  10:heartrate.c   ****  * ========================================
  11:heartrate.c   **** */
  12:heartrate.c   **** 
  13:heartrate.c   **** 
  14:heartrate.c   **** #include "heartrate.h"
  15:heartrate.c   **** #include "project.h"
  16:heartrate.c   **** 
  17:heartrate.c   **** int16_t IR_AC_Max = 20;
  18:heartrate.c   **** int16_t IR_AC_Min = -20;
  19:heartrate.c   **** 
  20:heartrate.c   **** int16_t IR_AC_Signal_Current = 0;
  21:heartrate.c   **** int16_t IR_AC_Signal_Previous;
  22:heartrate.c   **** int16_t IR_AC_Signal_min = 0;
  23:heartrate.c   **** int16_t IR_AC_Signal_max = 0;
  24:heartrate.c   **** int16_t IR_Average_Estimated;
  25:heartrate.c   **** 
  26:heartrate.c   **** int16_t positiveEdge = 0;
  27:heartrate.c   **** int16_t negativeEdge = 0;
  28:heartrate.c   **** int32_t ir_avg_reg = 0;
  29:heartrate.c   **** 
  30:heartrate.c   **** int16_t cbuf[32];
ARM GAS  C:\Users\joshw\AppData\Local\Temp\cc8bI6We.s 			page 2


  31:heartrate.c   **** uint8_t offset = 0;
  32:heartrate.c   **** 
  33:heartrate.c   **** static const uint16_t FIRCoeffs[12] = {172, 321, 579, 927, 1360, 1858, 2390, 2916, 3391, 3768, 4012
  34:heartrate.c   **** 
  35:heartrate.c   **** //  Heart Rate Monitor functions takes a sample value and the sample number
  36:heartrate.c   **** //  Returns true if a beat is detected
  37:heartrate.c   **** //  A running average of four samples is recommended for display on the screen.
  38:heartrate.c   **** bool checkForBeat(int32_t sample)
  39:heartrate.c   **** {
  40:heartrate.c   ****   bool beatDetected = false;
  41:heartrate.c   **** 
  42:heartrate.c   ****   //  Save current state
  43:heartrate.c   ****   IR_AC_Signal_Previous = IR_AC_Signal_Current;
  44:heartrate.c   **** 
  45:heartrate.c   ****   //  Process next data sample
  46:heartrate.c   ****   IR_Average_Estimated = averageDCEstimator(&ir_avg_reg, sample);
  47:heartrate.c   ****   IR_AC_Signal_Current = lowPassFIRFilter(sample - IR_Average_Estimated);
  48:heartrate.c   **** 
  49:heartrate.c   ****   //  Detect positive zero crossing (rising edge)
  50:heartrate.c   ****   if ((IR_AC_Signal_Previous < 0) && (IR_AC_Signal_Current >= 0))
  51:heartrate.c   ****   {
  52:heartrate.c   ****     IR_AC_Max = IR_AC_Signal_max; //Adjust our AC max and min
  53:heartrate.c   ****     IR_AC_Min = IR_AC_Signal_min;
  54:heartrate.c   **** 
  55:heartrate.c   ****     positiveEdge = 1;
  56:heartrate.c   ****     negativeEdge = 0;
  57:heartrate.c   ****     IR_AC_Signal_max = 0;
  58:heartrate.c   **** 
  59:heartrate.c   ****     //if ((IR_AC_Max - IR_AC_Min) > 100 && (IR_AC_Max - IR_AC_Min) < 1000)
  60:heartrate.c   ****     if ((IR_AC_Max - IR_AC_Min) > 20 && (IR_AC_Max - IR_AC_Min) < 1000)
  61:heartrate.c   ****     {
  62:heartrate.c   ****       //Heart beat!!!
  63:heartrate.c   ****       beatDetected = true;
  64:heartrate.c   ****     }
  65:heartrate.c   ****   }
  66:heartrate.c   **** 
  67:heartrate.c   ****   //  Detect negative zero crossing (falling edge)
  68:heartrate.c   ****   if ((IR_AC_Signal_Previous > 0) && (IR_AC_Signal_Current <= 0))
  69:heartrate.c   ****   {
  70:heartrate.c   ****     positiveEdge = 0;
  71:heartrate.c   ****     negativeEdge = 1;
  72:heartrate.c   ****     IR_AC_Signal_min = 0;
  73:heartrate.c   ****   }
  74:heartrate.c   **** 
  75:heartrate.c   ****   //  Find Maximum value in positive cycle
  76:heartrate.c   ****   if (positiveEdge && (IR_AC_Signal_Current > IR_AC_Signal_Previous))
  77:heartrate.c   ****   {
  78:heartrate.c   ****     IR_AC_Signal_max = IR_AC_Signal_Current;
  79:heartrate.c   ****   }
  80:heartrate.c   **** 
  81:heartrate.c   ****   //  Find Minimum value in negative cycle
  82:heartrate.c   ****   if (negativeEdge && (IR_AC_Signal_Current < IR_AC_Signal_Previous))
  83:heartrate.c   ****   {
  84:heartrate.c   ****     IR_AC_Signal_min = IR_AC_Signal_Current;
  85:heartrate.c   ****   }
  86:heartrate.c   ****   
  87:heartrate.c   ****   return(beatDetected);
ARM GAS  C:\Users\joshw\AppData\Local\Temp\cc8bI6We.s 			page 3


  88:heartrate.c   **** }
  89:heartrate.c   **** 
  90:heartrate.c   **** //  Average DC Estimator
  91:heartrate.c   **** int16_t averageDCEstimator(int32_t *p, uint16_t x)
  92:heartrate.c   **** {
  28              		.loc 1 92 0
  29              		.cfi_startproc
  30              		@ args = 0, pretend = 0, frame = 0
  31              		@ frame_needed = 0, uses_anonymous_args = 0
  32              		@ link register save eliminated.
  33              	.LVL0:
  93:heartrate.c   ****   *p += ((((long) x << 15) - *p) >> 4);
  34              		.loc 1 93 0
  35 0000 C903     		lsls	r1, r1, #15
  36              	.LVL1:
  37 0002 0368     		ldr	r3, [r0]
  38 0004 C91A     		subs	r1, r1, r3
  39 0006 0911     		asrs	r1, r1, #4
  40 0008 5918     		adds	r1, r3, r1
  41 000a 0160     		str	r1, [r0]
  94:heartrate.c   ****   return (*p >> 15);
  42              		.loc 1 94 0
  43 000c C913     		asrs	r1, r1, #15
  44 000e 08B2     		sxth	r0, r1
  45              	.LVL2:
  95:heartrate.c   **** }
  46              		.loc 1 95 0
  47              		@ sp needed
  48 0010 7047     		bx	lr
  49              		.cfi_endproc
  50              	.LFE33:
  51              		.size	averageDCEstimator, .-averageDCEstimator
  52 0012 C046     		.section	.text.mul16,"ax",%progbits
  53              		.align	2
  54              		.global	mul16
  55              		.code	16
  56              		.thumb_func
  57              		.type	mul16, %function
  58              	mul16:
  59              	.LFB35:
  96:heartrate.c   **** 
  97:heartrate.c   **** //  Low Pass FIR Filter
  98:heartrate.c   **** int16_t lowPassFIRFilter(int16_t din)
  99:heartrate.c   **** {  
 100:heartrate.c   ****   cbuf[offset] = din;
 101:heartrate.c   **** 
 102:heartrate.c   ****   int32_t z = mul16(FIRCoeffs[11], cbuf[(offset - 11) & 0x1F]);
 103:heartrate.c   ****   
 104:heartrate.c   ****   for (uint8_t i = 0 ; i < 11 ; i++)
 105:heartrate.c   ****   {
 106:heartrate.c   ****     z += mul16(FIRCoeffs[i], cbuf[(offset - i) & 0x1F] + cbuf[(offset - 22 + i) & 0x1F]);
 107:heartrate.c   ****   }
 108:heartrate.c   **** 
 109:heartrate.c   ****   offset++;
 110:heartrate.c   ****   offset %= 32; //Wrap condition
 111:heartrate.c   **** 
 112:heartrate.c   ****   return(z >> 15);
ARM GAS  C:\Users\joshw\AppData\Local\Temp\cc8bI6We.s 			page 4


 113:heartrate.c   **** }
 114:heartrate.c   **** 
 115:heartrate.c   **** //  Integer multiplier
 116:heartrate.c   **** int32_t mul16(int16_t x, int16_t y)
 117:heartrate.c   **** {
  60              		.loc 1 117 0
  61              		.cfi_startproc
  62              		@ args = 0, pretend = 0, frame = 0
  63              		@ frame_needed = 0, uses_anonymous_args = 0
  64              		@ link register save eliminated.
  65              	.LVL3:
 118:heartrate.c   ****   return((long)x * (long)y);
  66              		.loc 1 118 0
  67 0000 4843     		muls	r0, r1
  68              	.LVL4:
 119:heartrate.c   **** }
  69              		.loc 1 119 0
  70              		@ sp needed
  71 0002 7047     		bx	lr
  72              		.cfi_endproc
  73              	.LFE35:
  74              		.size	mul16, .-mul16
  75              		.section	.text.lowPassFIRFilter,"ax",%progbits
  76              		.align	2
  77              		.global	lowPassFIRFilter
  78              		.code	16
  79              		.thumb_func
  80              		.type	lowPassFIRFilter, %function
  81              	lowPassFIRFilter:
  82              	.LFB34:
  99:heartrate.c   ****   cbuf[offset] = din;
  83              		.loc 1 99 0
  84              		.cfi_startproc
  85              		@ args = 0, pretend = 0, frame = 0
  86              		@ frame_needed = 0, uses_anonymous_args = 0
  87              	.LVL5:
  88 0000 F0B5     		push	{r4, r5, r6, r7, lr}
  89              		.cfi_def_cfa_offset 20
  90              		.cfi_offset 4, -20
  91              		.cfi_offset 5, -16
  92              		.cfi_offset 6, -12
  93              		.cfi_offset 7, -8
  94              		.cfi_offset 14, -4
  95 0002 4746     		mov	r7, r8
  96 0004 80B4     		push	{r7}
  97              		.cfi_def_cfa_offset 24
  98              		.cfi_offset 8, -24
 100:heartrate.c   **** 
  99              		.loc 1 100 0
 100 0006 1B4B     		ldr	r3, .L6
 101 0008 1B78     		ldrb	r3, [r3]
 102 000a 9846     		mov	r8, r3
 103 000c 1E00     		movs	r6, r3
 104 000e 1A4A     		ldr	r2, .L6+4
 105 0010 5B00     		lsls	r3, r3, #1
 106 0012 9852     		strh	r0, [r3, r2]
 102:heartrate.c   ****   
ARM GAS  C:\Users\joshw\AppData\Local\Temp\cc8bI6We.s 			page 5


 107              		.loc 1 102 0
 108 0014 4346     		mov	r3, r8
 109 0016 0B3B     		subs	r3, r3, #11
 110 0018 1F21     		movs	r1, #31
 111 001a 0B40     		ands	r3, r1
 112 001c 5B00     		lsls	r3, r3, #1
 113 001e 995E     		ldrsh	r1, [r3, r2]
 114 0020 8020     		movs	r0, #128
 115              	.LVL6:
 116 0022 4001     		lsls	r0, r0, #5
 117 0024 FFF7FEFF 		bl	mul16
 118              	.LVL7:
 119 0028 0500     		movs	r5, r0
 120              	.LVL8:
 121              	.LBB2:
 104:heartrate.c   ****   {
 122              		.loc 1 104 0
 123 002a 0024     		movs	r4, #0
 124 002c 15E0     		b	.L4
 125              	.LVL9:
 126              	.L5:
 106:heartrate.c   ****   }
 127              		.loc 1 106 0 discriminator 3
 128 002e 6000     		lsls	r0, r4, #1
 129 0030 321B     		subs	r2, r6, r4
 130 0032 1F27     		movs	r7, #31
 131 0034 3A40     		ands	r2, r7
 132 0036 1049     		ldr	r1, .L6+4
 133 0038 5200     		lsls	r2, r2, #1
 134 003a 525E     		ldrsh	r2, [r2, r1]
 135 003c 3300     		movs	r3, r6
 136 003e 163B     		subs	r3, r3, #22
 137 0040 E318     		adds	r3, r4, r3
 138 0042 3B40     		ands	r3, r7
 139 0044 5B00     		lsls	r3, r3, #1
 140 0046 5B5E     		ldrsh	r3, [r3, r1]
 141 0048 D118     		adds	r1, r2, r3
 142 004a 09B2     		sxth	r1, r1
 143 004c 0B4B     		ldr	r3, .L6+8
 144 004e 185E     		ldrsh	r0, [r3, r0]
 145 0050 FFF7FEFF 		bl	mul16
 146              	.LVL10:
 147 0054 2D18     		adds	r5, r5, r0
 148              	.LVL11:
 104:heartrate.c   ****   {
 149              		.loc 1 104 0 discriminator 3
 150 0056 0134     		adds	r4, r4, #1
 151              	.LVL12:
 152 0058 E4B2     		uxtb	r4, r4
 153              	.LVL13:
 154              	.L4:
 104:heartrate.c   ****   {
 155              		.loc 1 104 0 is_stmt 0 discriminator 1
 156 005a 0A2C     		cmp	r4, #10
 157 005c E7D9     		bls	.L5
 158              	.LBE2:
 109:heartrate.c   ****   offset %= 32; //Wrap condition
ARM GAS  C:\Users\joshw\AppData\Local\Temp\cc8bI6We.s 			page 6


 159              		.loc 1 109 0 is_stmt 1
 160 005e 4746     		mov	r7, r8
 161 0060 0137     		adds	r7, r7, #1
 110:heartrate.c   **** 
 162              		.loc 1 110 0
 163 0062 1F23     		movs	r3, #31
 164 0064 1F40     		ands	r7, r3
 165 0066 034B     		ldr	r3, .L6
 166 0068 1F70     		strb	r7, [r3]
 112:heartrate.c   **** }
 167              		.loc 1 112 0
 168 006a ED13     		asrs	r5, r5, #15
 169              	.LVL14:
 170 006c 28B2     		sxth	r0, r5
 113:heartrate.c   **** 
 171              		.loc 1 113 0
 172              		@ sp needed
 173              	.LVL15:
 174 006e 04BC     		pop	{r2}
 175 0070 9046     		mov	r8, r2
 176 0072 F0BD     		pop	{r4, r5, r6, r7, pc}
 177              	.L7:
 178              		.align	2
 179              	.L6:
 180 0074 00000000 		.word	.LANCHOR0
 181 0078 00000000 		.word	cbuf
 182 007c 00000000 		.word	.LANCHOR1
 183              		.cfi_endproc
 184              	.LFE34:
 185              		.size	lowPassFIRFilter, .-lowPassFIRFilter
 186              		.section	.text.checkForBeat,"ax",%progbits
 187              		.align	2
 188              		.global	checkForBeat
 189              		.code	16
 190              		.thumb_func
 191              		.type	checkForBeat, %function
 192              	checkForBeat:
 193              	.LFB32:
  39:heartrate.c   ****   bool beatDetected = false;
 194              		.loc 1 39 0
 195              		.cfi_startproc
 196              		@ args = 0, pretend = 0, frame = 0
 197              		@ frame_needed = 0, uses_anonymous_args = 0
 198              	.LVL16:
 199 0000 F8B5     		push	{r3, r4, r5, r6, r7, lr}
 200              		.cfi_def_cfa_offset 24
 201              		.cfi_offset 3, -24
 202              		.cfi_offset 4, -20
 203              		.cfi_offset 5, -16
 204              		.cfi_offset 6, -12
 205              		.cfi_offset 7, -8
 206              		.cfi_offset 14, -4
 207              	.LVL17:
  43:heartrate.c   **** 
 208              		.loc 1 43 0
 209 0002 274E     		ldr	r6, .L16
 210 0004 274D     		ldr	r5, .L16+4
ARM GAS  C:\Users\joshw\AppData\Local\Temp\cc8bI6We.s 			page 7


 211 0006 6B88     		ldrh	r3, [r5, #2]
 212 0008 3380     		strh	r3, [r6]
  46:heartrate.c   ****   IR_AC_Signal_Current = lowPassFIRFilter(sample - IR_Average_Estimated);
 213              		.loc 1 46 0
 214 000a 84B2     		uxth	r4, r0
 215 000c 281D     		adds	r0, r5, #4
 216              	.LVL18:
 217 000e 2100     		movs	r1, r4
 218 0010 FFF7FEFF 		bl	averageDCEstimator
 219              	.LVL19:
 220 0014 244B     		ldr	r3, .L16+8
 221 0016 1880     		strh	r0, [r3]
  47:heartrate.c   **** 
 222              		.loc 1 47 0
 223 0018 201A     		subs	r0, r4, r0
 224 001a 00B2     		sxth	r0, r0
 225 001c FFF7FEFF 		bl	lowPassFIRFilter
 226              	.LVL20:
 227 0020 0200     		movs	r2, r0
 228 0022 6880     		strh	r0, [r5, #2]
  50:heartrate.c   ****   {
 229              		.loc 1 50 0
 230 0024 0021     		movs	r1, #0
 231 0026 735E     		ldrsh	r3, [r6, r1]
 232 0028 002B     		cmp	r3, #0
 233 002a 15DA     		bge	.L13
  50:heartrate.c   ****   {
 234              		.loc 1 50 0 is_stmt 0 discriminator 1
 235 002c 0028     		cmp	r0, #0
 236 002e 15DB     		blt	.L14
  52:heartrate.c   ****     IR_AC_Min = IR_AC_Signal_min;
 237              		.loc 1 52 0 is_stmt 1
 238 0030 1C4C     		ldr	r4, .L16+4
 239 0032 0825     		movs	r5, #8
 240 0034 615F     		ldrsh	r1, [r4, r5]
 241 0036 1D4E     		ldr	r6, .L16+12
 242 0038 3180     		strh	r1, [r6]
  53:heartrate.c   **** 
 243              		.loc 1 53 0
 244 003a 0A27     		movs	r7, #10
 245 003c E55F     		ldrsh	r5, [r4, r7]
 246 003e 7580     		strh	r5, [r6, #2]
  55:heartrate.c   ****     negativeEdge = 0;
 247              		.loc 1 55 0
 248 0040 0126     		movs	r6, #1
 249 0042 A681     		strh	r6, [r4, #12]
  56:heartrate.c   ****     IR_AC_Signal_max = 0;
 250              		.loc 1 56 0
 251 0044 0026     		movs	r6, #0
 252 0046 E681     		strh	r6, [r4, #14]
  57:heartrate.c   **** 
 253              		.loc 1 57 0
 254 0048 2681     		strh	r6, [r4, #8]
  60:heartrate.c   ****     {
 255              		.loc 1 60 0
 256 004a 491B     		subs	r1, r1, r5
 257 004c 1539     		subs	r1, r1, #21
ARM GAS  C:\Users\joshw\AppData\Local\Temp\cc8bI6We.s 			page 8


 258 004e 184C     		ldr	r4, .L16+16
 259 0050 A142     		cmp	r1, r4
 260 0052 05D9     		bls	.L15
  40:heartrate.c   **** 
 261              		.loc 1 40 0
 262 0054 0024     		movs	r4, #0
 263 0056 04E0     		b	.L9
 264              	.L13:
 265 0058 0024     		movs	r4, #0
 266 005a 02E0     		b	.L9
 267              	.L14:
 268 005c 0024     		movs	r4, #0
 269 005e 00E0     		b	.L9
 270              	.L15:
  63:heartrate.c   ****     }
 271              		.loc 1 63 0
 272 0060 0124     		movs	r4, #1
 273              	.L9:
 274              	.LVL21:
  68:heartrate.c   ****   {
 275              		.loc 1 68 0
 276 0062 002B     		cmp	r3, #0
 277 0064 07DD     		ble	.L10
  68:heartrate.c   ****   {
 278              		.loc 1 68 0 is_stmt 0 discriminator 1
 279 0066 002A     		cmp	r2, #0
 280 0068 05DC     		bgt	.L10
  70:heartrate.c   ****     negativeEdge = 1;
 281              		.loc 1 70 0 is_stmt 1
 282 006a 0E49     		ldr	r1, .L16+4
 283 006c 0025     		movs	r5, #0
 284 006e 8D81     		strh	r5, [r1, #12]
  71:heartrate.c   ****     IR_AC_Signal_min = 0;
 285              		.loc 1 71 0
 286 0070 0126     		movs	r6, #1
 287 0072 CE81     		strh	r6, [r1, #14]
  72:heartrate.c   ****   }
 288              		.loc 1 72 0
 289 0074 4D81     		strh	r5, [r1, #10]
 290              	.L10:
  76:heartrate.c   ****   {
 291              		.loc 1 76 0
 292 0076 0B49     		ldr	r1, .L16+4
 293 0078 0C25     		movs	r5, #12
 294 007a 495F     		ldrsh	r1, [r1, r5]
 295 007c 0029     		cmp	r1, #0
 296 007e 03D0     		beq	.L11
  76:heartrate.c   ****   {
 297              		.loc 1 76 0 is_stmt 0 discriminator 1
 298 0080 9A42     		cmp	r2, r3
 299 0082 01DD     		ble	.L11
  78:heartrate.c   ****   }
 300              		.loc 1 78 0 is_stmt 1
 301 0084 0749     		ldr	r1, .L16+4
 302 0086 0881     		strh	r0, [r1, #8]
 303              	.L11:
  82:heartrate.c   ****   {
ARM GAS  C:\Users\joshw\AppData\Local\Temp\cc8bI6We.s 			page 9


 304              		.loc 1 82 0
 305 0088 0649     		ldr	r1, .L16+4
 306 008a 0E25     		movs	r5, #14
 307 008c 495F     		ldrsh	r1, [r1, r5]
 308 008e 0029     		cmp	r1, #0
 309 0090 03D0     		beq	.L12
  82:heartrate.c   ****   {
 310              		.loc 1 82 0 is_stmt 0 discriminator 1
 311 0092 9A42     		cmp	r2, r3
 312 0094 01DA     		bge	.L12
  84:heartrate.c   ****   }
 313              		.loc 1 84 0 is_stmt 1
 314 0096 034B     		ldr	r3, .L16+4
 315 0098 5881     		strh	r0, [r3, #10]
 316              	.L12:
  88:heartrate.c   **** 
 317              		.loc 1 88 0
 318 009a 2000     		movs	r0, r4
 319              		@ sp needed
 320              	.LVL22:
 321 009c F8BD     		pop	{r3, r4, r5, r6, r7, pc}
 322              	.L17:
 323 009e C046     		.align	2
 324              	.L16:
 325 00a0 00000000 		.word	IR_AC_Signal_Previous
 326 00a4 00000000 		.word	.LANCHOR0
 327 00a8 00000000 		.word	IR_Average_Estimated
 328 00ac 00000000 		.word	.LANCHOR2
 329 00b0 D2030000 		.word	978
 330              		.cfi_endproc
 331              	.LFE32:
 332              		.size	checkForBeat, .-checkForBeat
 333              		.global	offset
 334              		.comm	cbuf,64,4
 335              		.global	ir_avg_reg
 336              		.global	negativeEdge
 337              		.global	positiveEdge
 338              		.comm	IR_Average_Estimated,2,2
 339              		.global	IR_AC_Signal_max
 340              		.global	IR_AC_Signal_min
 341              		.comm	IR_AC_Signal_Previous,2,2
 342              		.global	IR_AC_Signal_Current
 343              		.global	IR_AC_Min
 344              		.global	IR_AC_Max
 345              		.section	.rodata
 346              		.align	2
 347              		.set	.LANCHOR1,. + 0
 348              		.type	FIRCoeffs, %object
 349              		.size	FIRCoeffs, 24
 350              	FIRCoeffs:
 351 0000 AC00     		.short	172
 352 0002 4101     		.short	321
 353 0004 4302     		.short	579
 354 0006 9F03     		.short	927
 355 0008 5005     		.short	1360
 356 000a 4207     		.short	1858
 357 000c 5609     		.short	2390
ARM GAS  C:\Users\joshw\AppData\Local\Temp\cc8bI6We.s 			page 10


 358 000e 640B     		.short	2916
 359 0010 3F0D     		.short	3391
 360 0012 B80E     		.short	3768
 361 0014 AC0F     		.short	4012
 362 0016 0010     		.short	4096
 363              		.data
 364              		.align	1
 365              		.set	.LANCHOR2,. + 0
 366              		.type	IR_AC_Max, %object
 367              		.size	IR_AC_Max, 2
 368              	IR_AC_Max:
 369 0000 1400     		.short	20
 370              		.type	IR_AC_Min, %object
 371              		.size	IR_AC_Min, 2
 372              	IR_AC_Min:
 373 0002 ECFF     		.short	-20
 374              		.bss
 375              		.align	2
 376              		.set	.LANCHOR0,. + 0
 377              		.type	offset, %object
 378              		.size	offset, 1
 379              	offset:
 380 0000 00       		.space	1
 381 0001 00       		.space	1
 382              		.type	IR_AC_Signal_Current, %object
 383              		.size	IR_AC_Signal_Current, 2
 384              	IR_AC_Signal_Current:
 385 0002 0000     		.space	2
 386              		.type	ir_avg_reg, %object
 387              		.size	ir_avg_reg, 4
 388              	ir_avg_reg:
 389 0004 00000000 		.space	4
 390              		.type	IR_AC_Signal_max, %object
 391              		.size	IR_AC_Signal_max, 2
 392              	IR_AC_Signal_max:
 393 0008 0000     		.space	2
 394              		.type	IR_AC_Signal_min, %object
 395              		.size	IR_AC_Signal_min, 2
 396              	IR_AC_Signal_min:
 397 000a 0000     		.space	2
 398              		.type	positiveEdge, %object
 399              		.size	positiveEdge, 2
 400              	positiveEdge:
 401 000c 0000     		.space	2
 402              		.type	negativeEdge, %object
 403              		.size	negativeEdge, 2
 404              	negativeEdge:
 405 000e 0000     		.space	2
 406              		.text
 407              	.Letext0:
 408              		.file 2 "c:\\program files (x86)\\cypress\\psoc creator\\4.4\\psoc creator\\import\\gnu\\arm\\5.4.
 409              		.file 3 "c:\\program files (x86)\\cypress\\psoc creator\\4.4\\psoc creator\\import\\gnu\\arm\\5.4.