ARM GAS  C:\Users\joshw\AppData\Local\Temp\cccihfyk.s 			page 1


   1              		.syntax unified
   2              		.cpu cortex-m0
   3              		.fpu softvfp
   4              		.eabi_attribute 20, 1
   5              		.eabi_attribute 21, 1
   6              		.eabi_attribute 23, 3
   7              		.eabi_attribute 24, 1
   8              		.eabi_attribute 25, 1
   9              		.eabi_attribute 26, 1
  10              		.eabi_attribute 30, 1
  11              		.eabi_attribute 34, 0
  12              		.eabi_attribute 18, 4
  13              		.thumb
  14              		.syntax unified
  15              		.file	"main.c"
  16              		.text
  17              	.Ltext0:
  18              		.cfi_sections	.debug_frame
  19              		.section	.text.main,"ax",%progbits
  20              		.align	2
  21              		.global	main
  22              		.code	16
  23              		.thumb_func
  24              		.type	main, %function
  25              	main:
  26              	.LFB33:
  27              		.file 1 "main.c"
   1:main.c        **** /*===================================    
   2:main.c        **** Final Design Project: Heart Rate Monitor  
   3:main.c        **** Paige Spencer & Josh Wild    
   4:main.c        **** October 30 2025    
   5:main.c        **** Weeks 1-4:
   6:main.c        **** Write code to successfully measure, filter, and display heart rate.
   7:main.c        **** - Read IR sensor data from MAX30102
   8:main.c        **** - Filter noise (moving average)
   9:main.c        **** - Detect peaks to calculate BPM
  10:main.c        **** - Display BPM on OLED
  11:main.c        **** - Indicate heart rate range with messages:
  12:main.c        ****     * Normal Resting (60–100 BPM)
  13:main.c        ****     * Moderate-Intensity Exercise (100–140 BPM)
  14:main.c        ****     * High Intensity Exercise (>140 BPM)
  15:main.c        **** ========================================*/   
  16:main.c        **** 
  17:main.c        **** 
  18:main.c        **** #include "project.h"
  19:main.c        **** #include "stdbool.h"
  20:main.c        **** #include "stdio.h"
  21:main.c        **** #include "ssd1306_driver.h"
  22:main.c        **** #include "max30102_driver.h"
  23:main.c        **** 
  24:main.c        **** #define BLINK_DELAY 500
  25:main.c        **** 
  26:main.c        **** //volatile bool btn_pressed = false;
  27:main.c        **** //volatile bool device_on = true;
  28:main.c        **** char8 stringBuffer[100];
  29:main.c        **** 
  30:main.c        **** //CY_ISR_PROTO(Button_ISR_Handler);
ARM GAS  C:\Users\joshw\AppData\Local\Temp\cccihfyk.s 			page 2


  31:main.c        **** //CY_ISR(Button_ISR_Handler){
  32:main.c        **** //    if (!btn_pressed) {
  33:main.c        **** //        btn_pressed = true;
  34:main.c        **** //    }
  35:main.c        **** //    PWR_BTN_ClearInterrupt();
  36:main.c        **** // }
  37:main.c        **** 
  38:main.c        **** // static void handle_power_toggle(void){
  39:main.c        **** //    if(device_on){
  40:main.c        ****         //SSD1306_Clear();
  41:main.c        ****         //SSD1306_Update();
  42:main.c        **** //        I2C_Stop();
  43:main.c        ****         
  44:main.c        **** //        device_on = false;
  45:main.c        ****         
  46:main.c        **** //        CyDelay(5);
  47:main.c        ****         
  48:main.c        **** //        CySysPmDeepSleep();
  49:main.c        **** //    } else {
  50:main.c        **** //        I2C_Start();
  51:main.c        ****         
  52:main.c        ****         //OLED_RST_Write(0);
  53:main.c        ****         //CyDelay(10);
  54:main.c        ****         //OLED_RST_Write(1);
  55:main.c        ****         //CyDelay(10);
  56:main.c        ****         
  57:main.c        ****         //SSD1306_Init();
  58:main.c        ****         //SSD1306_Clear();
  59:main.c        ****         //SSD1306_Update();
  60:main.c        ****         
  61:main.c        **** //        device_on = true;
  62:main.c        **** //    }
  63:main.c        **** //}
  64:main.c        **** 
  65:main.c        **** /*
  66:main.c        **** int main(void)
  67:main.c        **** {
  68:main.c        ****     CyGlobalIntEnable;
  69:main.c        ****  
  70:main.c        ****     I2C_Start();
  71:main.c        ****     UART_Start();
  72:main.c        ****     
  73:main.c        ****     UART_UartPutString("\n\rStarting Code\n\r");
  74:main.c        ****     
  75:main.c        ****     if (!init()) {
  76:main.c        ****         UART_UartPutString("init failed!\n\r");
  77:main.c        ****         for(;;) {
  78:main.c        ****             LED_PWM_Start();
  79:main.c        ****             CyDelay(1000);
  80:main.c        ****             LED_PWM_Stop();
  81:main.c        ****             CyDelay(1000);
  82:main.c        ****         }
  83:main.c        ****     }
  84:main.c        ****     
  85:main.c        ****     clearDisplay();
  86:main.c        ****     drawString(0, 0, "Heart Rate: 75bpm", SSD1306_WHITE);
  87:main.c        ****     drawString(0, 10, "Pulse Ox: 98%", SSD1306_WHITE);
ARM GAS  C:\Users\joshw\AppData\Local\Temp\cccihfyk.s 			page 3


  88:main.c        ****     
  89:main.c        ****     refreshDisplay();
  90:main.c        ****     
  91:main.c        ****     for(;;) {
  92:main.c        ****         LED_PWM_Start();
  93:main.c        ****     }
  94:main.c        **** }
  95:main.c        **** */
  96:main.c        **** 
  97:main.c        **** 
  98:main.c        **** /*
  99:main.c        **** int main(void) {
 100:main.c        ****      CyGlobalIntEnable;
 101:main.c        **** 
 102:main.c        ****     UART_Start();
 103:main.c        ****     I2C_Start();
 104:main.c        **** 
 105:main.c        ****     UART_UartPutString("MAX30102 Test Program Starting...\r\n");
 106:main.c        **** 
 107:main.c        ****     // ------------------------------
 108:main.c        ****     // Initialize MAX30102
 109:main.c        ****     // ------------------------------
 110:main.c        ****     if (!MAX30105_begin())
 111:main.c        ****     {
 112:main.c        ****         UART_UartPutString("ERROR: MAX30102 not detected!\r\n");
 113:main.c        ****         for(;;);  // Stop here
 114:main.c        ****     }
 115:main.c        ****     
 116:main.c        ****     UART_UartPutString("MAX30102 detected.\r\n");
 117:main.c        **** 
 118:main.c        ****     // Setup sensor: (powerLevel, sampleAverage, ledMode, sampleRate, pulseWidth, adcRange)
 119:main.c        ****     // Red+IR, 100 samples/sec, normal defaults
 120:main.c        ****     MAX30105_setup(
 121:main.c        ****         0x3F,   // powerLevel (LED brightness)
 122:main.c        ****         4,      // sampleAverage
 123:main.c        ****         2,      // ledMode = RED + IR
 124:main.c        ****         100,    // sampleRate
 125:main.c        ****         411,    // pulseWidth
 126:main.c        ****         16384   // adcRange
 127:main.c        ****     );
 128:main.c        **** 
 129:main.c        ****     UART_UartPutString("MAX30102 configured. Starting data read...\r\n");
 130:main.c        **** 
 131:main.c        ****     char buffer[64];
 132:main.c        **** 
 133:main.c        ****     for (;;)
 134:main.c        ****     {
 135:main.c        ****         // This will pull new samples from the FIFO into sense.red/IR buffers
 136:main.c        ****         //UART_UartPutString("Checking MAX30102...\r\n");
 137:main.c        ****         MAX30105_check();
 138:main.c        **** 
 139:main.c        ****         while (MAX30105_available())
 140:main.c        ****         {
 141:main.c        ****             //UART_UartPutString("MAX30102 Available...\r\n");
 142:main.c        ****             uint32_t red   = MAX30105_getFIFORed();
 143:main.c        ****             uint32_t ir    = MAX30105_getFIFOIR();
 144:main.c        **** 
ARM GAS  C:\Users\joshw\AppData\Local\Temp\cccihfyk.s 			page 4


 145:main.c        ****             // Format and print to UART
 146:main.c        ****             snprintf(buffer, sizeof(buffer),
 147:main.c        ****                      "RED: %lu    IR: %lu\r\n",
 148:main.c        ****                      (unsigned long)red,
 149:main.c        ****                      (unsigned long)ir);
 150:main.c        **** 
 151:main.c        ****             UART_UartPutString(buffer);
 152:main.c        **** 
 153:main.c        ****             MAX30105_nextSample();
 154:main.c        ****         }
 155:main.c        ****         //UART_UartPutString("MAX30102 Exited...\r\n");
 156:main.c        **** 
 157:main.c        ****         CyDelay(1000);
 158:main.c        ****     }  
 159:main.c        **** }
 160:main.c        **** */
 161:main.c        **** 
 162:main.c        **** int main(void)
 163:main.c        **** {
  28              		.loc 1 163 0
  29              		.cfi_startproc
  30              		@ args = 0, pretend = 0, frame = 88
  31              		@ frame_needed = 0, uses_anonymous_args = 0
  32 0000 70B5     		push	{r4, r5, r6, lr}
  33              		.cfi_def_cfa_offset 16
  34              		.cfi_offset 4, -16
  35              		.cfi_offset 5, -12
  36              		.cfi_offset 6, -8
  37              		.cfi_offset 14, -4
  38 0002 98B0     		sub	sp, sp, #96
  39              		.cfi_def_cfa_offset 112
 164:main.c        ****     CyGlobalIntEnable;
  40              		.loc 1 164 0
  41              		.syntax divided
  42              	@ 164 "main.c" 1
  43 0004 62B6     		CPSIE   i
  44              	@ 0 "" 2
 165:main.c        **** 
 166:main.c        ****     I2C_Start();
  45              		.loc 1 166 0
  46              		.thumb
  47              		.syntax unified
  48 0006 FFF7FEFF 		bl	I2C_Start
  49              	.LVL0:
 167:main.c        ****     UART_Start();
  50              		.loc 1 167 0
  51 000a FFF7FEFF 		bl	UART_Start
  52              	.LVL1:
 168:main.c        **** 
 169:main.c        ****     UART_UartPutString("\n\rStarting MAX30102 + OLED Program...\n\r");
  53              		.loc 1 169 0
  54 000e 4E48     		ldr	r0, .L9
  55 0010 FFF7FEFF 		bl	UART_UartPutString
  56              	.LVL2:
 170:main.c        **** 
 171:main.c        ****     // ----------------------------------
 172:main.c        ****     // OLED INITIALIZATION
ARM GAS  C:\Users\joshw\AppData\Local\Temp\cccihfyk.s 			page 5


 173:main.c        ****     // ----------------------------------
 174:main.c        ****     if (!init()) {
  57              		.loc 1 174 0
  58 0014 FFF7FEFF 		bl	init
  59              	.LVL3:
  60 0018 0028     		cmp	r0, #0
  61 001a 0FD1     		bne	.L2
 175:main.c        ****         UART_UartPutString("OLED init failed!\n\r");
  62              		.loc 1 175 0
  63 001c 4B48     		ldr	r0, .L9+4
  64 001e FFF7FEFF 		bl	UART_UartPutString
  65              	.LVL4:
  66              	.L3:
 176:main.c        ****         for(;;) {
 177:main.c        ****             LED_PWM_Start();
  67              		.loc 1 177 0 discriminator 1
  68 0022 FFF7FEFF 		bl	LED_PWM_Start
  69              	.LVL5:
 178:main.c        ****             CyDelay(1000);
  70              		.loc 1 178 0 discriminator 1
  71 0026 FA24     		movs	r4, #250
  72 0028 A400     		lsls	r4, r4, #2
  73 002a 2000     		movs	r0, r4
  74 002c FFF7FEFF 		bl	CyDelay
  75              	.LVL6:
 179:main.c        ****             LED_PWM_Stop();
  76              		.loc 1 179 0 discriminator 1
  77 0030 FFF7FEFF 		bl	LED_PWM_Stop
  78              	.LVL7:
 180:main.c        ****             CyDelay(1000);
  79              		.loc 1 180 0 discriminator 1
  80 0034 2000     		movs	r0, r4
  81 0036 FFF7FEFF 		bl	CyDelay
  82              	.LVL8:
  83 003a F2E7     		b	.L3
  84              	.L2:
 181:main.c        ****         }
 182:main.c        ****     }
 183:main.c        **** 
 184:main.c        ****     clearDisplay();
  85              		.loc 1 184 0
  86 003c FFF7FEFF 		bl	clearDisplay
  87              	.LVL9:
 185:main.c        ****     drawString(0, 0, "MAX30102 Init...", SSD1306_WHITE);
  88              		.loc 1 185 0
  89 0040 0123     		movs	r3, #1
  90 0042 434A     		ldr	r2, .L9+8
  91 0044 0021     		movs	r1, #0
  92 0046 0020     		movs	r0, #0
  93 0048 FFF7FEFF 		bl	drawString
  94              	.LVL10:
 186:main.c        ****     refreshDisplay();
  95              		.loc 1 186 0
  96 004c FFF7FEFF 		bl	refreshDisplay
  97              	.LVL11:
 187:main.c        **** 
 188:main.c        ****     // ----------------------------------
ARM GAS  C:\Users\joshw\AppData\Local\Temp\cccihfyk.s 			page 6


 189:main.c        ****     // MAX30102 INITIALIZATION
 190:main.c        ****     // ----------------------------------
 191:main.c        ****     if (!MAX30105_begin())
  98              		.loc 1 191 0
  99 0050 FFF7FEFF 		bl	MAX30105_begin
 100              	.LVL12:
 101 0054 0028     		cmp	r0, #0
 102 0056 0DD1     		bne	.L4
 192:main.c        ****     {
 193:main.c        ****         UART_UartPutString("ERROR: MAX30102 not detected!\r\n");
 103              		.loc 1 193 0
 104 0058 3E48     		ldr	r0, .L9+12
 105 005a FFF7FEFF 		bl	UART_UartPutString
 106              	.LVL13:
 194:main.c        ****         clearDisplay();
 107              		.loc 1 194 0
 108 005e FFF7FEFF 		bl	clearDisplay
 109              	.LVL14:
 195:main.c        ****         drawString(0, 0, "MAX30102 ERROR", SSD1306_WHITE);
 110              		.loc 1 195 0
 111 0062 0123     		movs	r3, #1
 112 0064 3C4A     		ldr	r2, .L9+16
 113 0066 0021     		movs	r1, #0
 114 0068 0020     		movs	r0, #0
 115 006a FFF7FEFF 		bl	drawString
 116              	.LVL15:
 196:main.c        ****         refreshDisplay();
 117              		.loc 1 196 0
 118 006e FFF7FEFF 		bl	refreshDisplay
 119              	.LVL16:
 120              	.L5:
 121 0072 FEE7     		b	.L5
 122              	.L4:
 197:main.c        ****         for(;;);
 198:main.c        ****     }
 199:main.c        **** 
 200:main.c        ****     UART_UartPutString("MAX30102 detected.\r\n");
 123              		.loc 1 200 0
 124 0074 3948     		ldr	r0, .L9+20
 125 0076 FFF7FEFF 		bl	UART_UartPutString
 126              	.LVL17:
 201:main.c        **** 
 202:main.c        ****     MAX30105_setup(
 127              		.loc 1 202 0
 128 007a 8023     		movs	r3, #128
 129 007c DB01     		lsls	r3, r3, #7
 130 007e 0193     		str	r3, [sp, #4]
 131 0080 9C23     		movs	r3, #156
 132 0082 FF33     		adds	r3, r3, #255
 133 0084 0093     		str	r3, [sp]
 134 0086 383B     		subs	r3, r3, #56
 135 0088 FF3B     		subs	r3, r3, #255
 136 008a 0222     		movs	r2, #2
 137 008c 0421     		movs	r1, #4
 138 008e 3F20     		movs	r0, #63
 139 0090 FFF7FEFF 		bl	MAX30105_setup
 140              	.LVL18:
ARM GAS  C:\Users\joshw\AppData\Local\Temp\cccihfyk.s 			page 7


 203:main.c        ****         0x3F,   // LED brightness
 204:main.c        ****         4,      // sample average
 205:main.c        ****         2,      // red + IR
 206:main.c        ****         100,    // sampleRate
 207:main.c        ****         411,    // pulseWidth
 208:main.c        ****         16384   // adcRange
 209:main.c        ****     );
 210:main.c        **** 
 211:main.c        ****     UART_UartPutString("MAX30102 configured.\r\n");
 141              		.loc 1 211 0
 142 0094 3248     		ldr	r0, .L9+24
 143 0096 FFF7FEFF 		bl	UART_UartPutString
 144              	.LVL19:
 212:main.c        **** 
 213:main.c        ****     clearDisplay();
 145              		.loc 1 213 0
 146 009a FFF7FEFF 		bl	clearDisplay
 147              	.LVL20:
 214:main.c        ****     drawString(0, 0, "Sensor Ready", SSD1306_WHITE);
 148              		.loc 1 214 0
 149 009e 0123     		movs	r3, #1
 150 00a0 304A     		ldr	r2, .L9+28
 151 00a2 0021     		movs	r1, #0
 152 00a4 0020     		movs	r0, #0
 153 00a6 FFF7FEFF 		bl	drawString
 154              	.LVL21:
 215:main.c        ****     refreshDisplay();
 155              		.loc 1 215 0
 156 00aa FFF7FEFF 		bl	refreshDisplay
 157              	.LVL22:
 158              	.L8:
 216:main.c        **** 
 217:main.c        ****     char buffer[64];
 218:main.c        **** 
 219:main.c        ****     // ----------------------------------
 220:main.c        ****     // MAIN LOOP
 221:main.c        ****     // ----------------------------------
 222:main.c        ****     for (;;)
 223:main.c        ****     {
 224:main.c        ****         MAX30105_check(); // Fill FIFO buffer
 159              		.loc 1 224 0
 160 00ae FFF7FEFF 		bl	MAX30105_check
 161              	.LVL23:
 225:main.c        **** 
 226:main.c        ****         while (MAX30105_available())
 162              		.loc 1 226 0
 163 00b2 40E0     		b	.L6
 164              	.L7:
 165              	.LBB2:
 227:main.c        ****         {
 228:main.c        ****             uint32_t red = MAX30105_getFIFORed();
 166              		.loc 1 228 0
 167 00b4 FFF7FEFF 		bl	MAX30105_getFIFORed
 168              	.LVL24:
 169 00b8 0600     		movs	r6, r0
 170              	.LVL25:
 229:main.c        ****             uint32_t ir  = MAX30105_getFIFOIR();
ARM GAS  C:\Users\joshw\AppData\Local\Temp\cccihfyk.s 			page 8


 171              		.loc 1 229 0
 172 00ba FFF7FEFF 		bl	MAX30105_getFIFOIR
 173              	.LVL26:
 174 00be 0500     		movs	r5, r0
 175              	.LVL27:
 230:main.c        **** 
 231:main.c        ****             // ----------------------------------
 232:main.c        ****             // UART PRINT (optional)
 233:main.c        ****             // ----------------------------------
 234:main.c        ****             snprintf(buffer, sizeof(buffer),
 176              		.loc 1 234 0
 177 00c0 0090     		str	r0, [sp]
 178 00c2 3300     		movs	r3, r6
 179 00c4 284A     		ldr	r2, .L9+32
 180 00c6 4021     		movs	r1, #64
 181 00c8 08A8     		add	r0, sp, #32
 182              	.LVL28:
 183 00ca FFF7FEFF 		bl	snprintf
 184              	.LVL29:
 235:main.c        ****                     "RED: %lu   IR: %lu\r\n",
 236:main.c        ****                     (unsigned long)red,
 237:main.c        ****                     (unsigned long)ir);
 238:main.c        ****             UART_UartPutString(buffer);
 185              		.loc 1 238 0
 186 00ce 08A8     		add	r0, sp, #32
 187 00d0 FFF7FEFF 		bl	UART_UartPutString
 188              	.LVL30:
 239:main.c        **** 
 240:main.c        ****             // ----------------------------------
 241:main.c        ****             // OLED PRINT
 242:main.c        ****             // ----------------------------------
 243:main.c        ****             char redStr[12];
 244:main.c        ****             char irStr[12];
 245:main.c        **** 
 246:main.c        ****             // Convert numbers to strings
 247:main.c        ****             snprintf(redStr, sizeof(redStr), "%lu", (unsigned long)red);
 189              		.loc 1 247 0
 190 00d4 254C     		ldr	r4, .L9+36
 191 00d6 3300     		movs	r3, r6
 192 00d8 2200     		movs	r2, r4
 193 00da 0C21     		movs	r1, #12
 194 00dc 02A8     		add	r0, sp, #8
 195 00de FFF7FEFF 		bl	snprintf
 196              	.LVL31:
 248:main.c        ****             snprintf(irStr, sizeof(irStr), "%lu", (unsigned long)ir);
 197              		.loc 1 248 0
 198 00e2 2B00     		movs	r3, r5
 199 00e4 2200     		movs	r2, r4
 200 00e6 0C21     		movs	r1, #12
 201 00e8 05A8     		add	r0, sp, #20
 202 00ea FFF7FEFF 		bl	snprintf
 203              	.LVL32:
 249:main.c        ****             
 250:main.c        ****             clearDisplay();
 204              		.loc 1 250 0
 205 00ee FFF7FEFF 		bl	clearDisplay
 206              	.LVL33:
ARM GAS  C:\Users\joshw\AppData\Local\Temp\cccihfyk.s 			page 9


 251:main.c        **** 
 252:main.c        ****             drawString(0, 0, "MAX30102 Live Data", SSD1306_WHITE);
 207              		.loc 1 252 0
 208 00f2 0123     		movs	r3, #1
 209 00f4 1E4A     		ldr	r2, .L9+40
 210 00f6 0021     		movs	r1, #0
 211 00f8 0020     		movs	r0, #0
 212 00fa FFF7FEFF 		bl	drawString
 213              	.LVL34:
 253:main.c        **** 
 254:main.c        ****             drawString(0, 12, "RED:", SSD1306_WHITE);
 214              		.loc 1 254 0
 215 00fe 0123     		movs	r3, #1
 216 0100 1C4A     		ldr	r2, .L9+44
 217 0102 0C21     		movs	r1, #12
 218 0104 0020     		movs	r0, #0
 219 0106 FFF7FEFF 		bl	drawString
 220              	.LVL35:
 255:main.c        ****             drawString(40, 12, redStr, SSD1306_WHITE);
 221              		.loc 1 255 0
 222 010a 0123     		movs	r3, #1
 223 010c 02AA     		add	r2, sp, #8
 224 010e 0C21     		movs	r1, #12
 225 0110 2820     		movs	r0, #40
 226 0112 FFF7FEFF 		bl	drawString
 227              	.LVL36:
 256:main.c        **** 
 257:main.c        ****             drawString(0, 24, "IR :", SSD1306_WHITE);
 228              		.loc 1 257 0
 229 0116 0123     		movs	r3, #1
 230 0118 174A     		ldr	r2, .L9+48
 231 011a 1821     		movs	r1, #24
 232 011c 0020     		movs	r0, #0
 233 011e FFF7FEFF 		bl	drawString
 234              	.LVL37:
 258:main.c        ****             drawString(40, 24, irStr, SSD1306_WHITE);
 235              		.loc 1 258 0
 236 0122 0123     		movs	r3, #1
 237 0124 05AA     		add	r2, sp, #20
 238 0126 1821     		movs	r1, #24
 239 0128 2820     		movs	r0, #40
 240 012a FFF7FEFF 		bl	drawString
 241              	.LVL38:
 259:main.c        **** 
 260:main.c        ****             refreshDisplay();
 242              		.loc 1 260 0
 243 012e FFF7FEFF 		bl	refreshDisplay
 244              	.LVL39:
 261:main.c        **** 
 262:main.c        ****             MAX30105_nextSample();
 245              		.loc 1 262 0
 246 0132 FFF7FEFF 		bl	MAX30105_nextSample
 247              	.LVL40:
 248              	.L6:
 249              	.LBE2:
 226:main.c        ****         {
 250              		.loc 1 226 0
ARM GAS  C:\Users\joshw\AppData\Local\Temp\cccihfyk.s 			page 10


 251 0136 FFF7FEFF 		bl	MAX30105_available
 252              	.LVL41:
 253 013a 0028     		cmp	r0, #0
 254 013c BAD1     		bne	.L7
 263:main.c        ****         }
 264:main.c        **** 
 265:main.c        ****         CyDelay(500);  // Adjust refresh speed
 255              		.loc 1 265 0
 256 013e F530     		adds	r0, r0, #245
 257 0140 FF30     		adds	r0, r0, #255
 258 0142 FFF7FEFF 		bl	CyDelay
 259              	.LVL42:
 266:main.c        ****     }
 260              		.loc 1 266 0
 261 0146 B2E7     		b	.L8
 262              	.L10:
 263              		.align	2
 264              	.L9:
 265 0148 00000000 		.word	.LC0
 266 014c 28000000 		.word	.LC2
 267 0150 3C000000 		.word	.LC4
 268 0154 50000000 		.word	.LC6
 269 0158 70000000 		.word	.LC8
 270 015c 80000000 		.word	.LC10
 271 0160 98000000 		.word	.LC12
 272 0164 B0000000 		.word	.LC14
 273 0168 C0000000 		.word	.LC16
 274 016c D8000000 		.word	.LC18
 275 0170 DC000000 		.word	.LC20
 276 0174 F0000000 		.word	.LC22
 277 0178 F8000000 		.word	.LC24
 278              		.cfi_endproc
 279              	.LFE33:
 280              		.size	main, .-main
 281              		.comm	stringBuffer,100,4
 282              		.section	.rodata.str1.4,"aMS",%progbits,1
 283              		.align	2
 284              	.LC0:
 285 0000 0A0D5374 		.ascii	"\012\015Starting MAX30102 + OLED Program...\012\015"
 285      61727469 
 285      6E67204D 
 285      41583330 
 285      31303220 
 286 0027 00       		.ascii	"\000"
 287              	.LC2:
 288 0028 4F4C4544 		.ascii	"OLED init failed!\012\015\000"
 288      20696E69 
 288      74206661 
 288      696C6564 
 288      210A0D00 
 289              	.LC4:
 290 003c 4D415833 		.ascii	"MAX30102 Init...\000"
 290      30313032 
 290      20496E69 
 290      742E2E2E 
 290      00
 291 004d 000000   		.space	3
ARM GAS  C:\Users\joshw\AppData\Local\Temp\cccihfyk.s 			page 11


 292              	.LC6:
 293 0050 4552524F 		.ascii	"ERROR: MAX30102 not detected!\015\012\000"
 293      523A204D 
 293      41583330 
 293      31303220 
 293      6E6F7420 
 294              	.LC8:
 295 0070 4D415833 		.ascii	"MAX30102 ERROR\000"
 295      30313032 
 295      20455252 
 295      4F5200
 296 007f 00       		.space	1
 297              	.LC10:
 298 0080 4D415833 		.ascii	"MAX30102 detected.\015\012\000"
 298      30313032 
 298      20646574 
 298      65637465 
 298      642E0D0A 
 299 0095 000000   		.space	3
 300              	.LC12:
 301 0098 4D415833 		.ascii	"MAX30102 configured.\015\012\000"
 301      30313032 
 301      20636F6E 
 301      66696775 
 301      7265642E 
 302 00af 00       		.space	1
 303              	.LC14:
 304 00b0 53656E73 		.ascii	"Sensor Ready\000"
 304      6F722052 
 304      65616479 
 304      00
 305 00bd 000000   		.space	3
 306              	.LC16:
 307 00c0 5245443A 		.ascii	"RED: %lu   IR: %lu\015\012\000"
 307      20256C75 
 307      20202049 
 307      523A2025 
 307      6C750D0A 
 308 00d5 000000   		.space	3
 309              	.LC18:
 310 00d8 256C7500 		.ascii	"%lu\000"
 311              	.LC20:
 312 00dc 4D415833 		.ascii	"MAX30102 Live Data\000"
 312      30313032 
 312      204C6976 
 312      65204461 
 312      746100
 313 00ef 00       		.space	1
 314              	.LC22:
 315 00f0 5245443A 		.ascii	"RED:\000"
 315      00
 316 00f5 000000   		.space	3
 317              	.LC24:
 318 00f8 4952203A 		.ascii	"IR :\000"
 318      00
 319              		.text
 320              	.Letext0:
ARM GAS  C:\Users\joshw\AppData\Local\Temp\cccihfyk.s 			page 12


 321              		.file 2 "c:\\program files (x86)\\cypress\\psoc creator\\4.4\\psoc creator\\import\\gnu\\arm\\5.4.
 322              		.file 3 "c:\\program files (x86)\\cypress\\psoc creator\\4.4\\psoc creator\\import\\gnu\\arm\\5.4.
 323              		.file 4 "Generated_Source\\PSoC4/cytypes.h"
 324              		.file 5 "max30102_driver.h"
 325              		.file 6 "c:\\program files (x86)\\cypress\\psoc creator\\4.4\\psoc creator\\import\\gnu\\arm\\5.4.
 326              		.file 7 "Generated_Source\\PSoC4/UART_SPI_UART.h"
 327              		.file 8 "ssd1306_driver.h"
 328              		.file 9 "Generated_Source\\PSoC4/I2C.h"
 329              		.file 10 "Generated_Source\\PSoC4/UART.h"
 330              		.file 11 "Generated_Source\\PSoC4/LED_PWM.h"
 331              		.file 12 "Generated_Source\\PSoC4/CyLib.h"