ARM GAS  C:\Users\joshw\AppData\Local\Temp\ccyVVHcx.s 			page 1


   1              		.syntax unified
   2              		.cpu cortex-m0
   3              		.fpu softvfp
   4              		.eabi_attribute 20, 1
   5              		.eabi_attribute 21, 1
   6              		.eabi_attribute 23, 3
   7              		.eabi_attribute 24, 1
   8              		.eabi_attribute 25, 1
   9              		.eabi_attribute 26, 1
  10              		.eabi_attribute 30, 1
  11              		.eabi_attribute 34, 0
  12              		.eabi_attribute 18, 4
  13              		.thumb
  14              		.syntax unified
  15              		.file	"spo2_algorithm.c"
  16              		.text
  17              	.Ltext0:
  18              		.cfi_sections	.debug_frame
  19              		.section	.text.maxim_peaks_above_min_height,"ax",%progbits
  20              		.align	2
  21              		.global	maxim_peaks_above_min_height
  22              		.code	16
  23              		.thumb_func
  24              		.type	maxim_peaks_above_min_height, %function
  25              	maxim_peaks_above_min_height:
  26              	.LFB34:
  27              		.file 1 "spo2_algorithm.c"
   1:spo2_algorithm.c **** /* ========================================
   2:spo2_algorithm.c ****  *
   3:spo2_algorithm.c ****  * Copyright YOUR COMPANY, THE YEAR
   4:spo2_algorithm.c ****  * All Rights Reserved
   5:spo2_algorithm.c ****  * UNPUBLISHED, LICENSED SOFTWARE.
   6:spo2_algorithm.c ****  *
   7:spo2_algorithm.c ****  * CONFIDENTIAL AND PROPRIETARY INFORMATION
   8:spo2_algorithm.c ****  * WHICH IS THE PROPERTY OF your company.
   9:spo2_algorithm.c ****  *
  10:spo2_algorithm.c ****  * ========================================
  11:spo2_algorithm.c **** */
  12:spo2_algorithm.c **** 
  13:spo2_algorithm.c **** #include "spo2_algorithm.h"
  14:spo2_algorithm.c **** #include "project.h"
  15:spo2_algorithm.c **** 
  16:spo2_algorithm.c **** // MIN macro for PSoC
  17:spo2_algorithm.c **** #define min(x,y) ((x) < (y) ? (x) : (y))
  18:spo2_algorithm.c **** 
  19:spo2_algorithm.c **** int32_t an_x[BUFFER_SIZE]; //ir
  20:spo2_algorithm.c **** int32_t an_y[BUFFER_SIZE]; //red
  21:spo2_algorithm.c **** 
  22:spo2_algorithm.c **** const uint8_t uch_spo2_table[184] = { 
  23:spo2_algorithm.c ****   95, 95, 95, 96, 96, 96, 97, 97, 97, 97, 97, 98, 98, 98, 98, 98, 99, 99, 99, 99, 
  24:spo2_algorithm.c ****   99, 99, 99, 99, 100, 100, 100, 100, 100, 100, 100, 100, 100, 100, 100, 100, 100, 100, 100, 100, 
  25:spo2_algorithm.c ****   100, 100, 100, 100, 99, 99, 99, 99, 99, 99, 99, 99, 98, 98, 98, 98, 98, 98, 97, 97, 
  26:spo2_algorithm.c ****   97, 97, 96, 96, 96, 96, 95, 95, 95, 94, 94, 94, 93, 93, 93, 92, 92, 92, 91, 91, 
  27:spo2_algorithm.c ****   90, 90, 89, 89, 89, 88, 88, 87, 87, 86, 86, 85, 85, 84, 84, 83, 82, 82, 81, 81, 
  28:spo2_algorithm.c ****   80, 80, 79, 78, 78, 77, 76, 76, 75, 74, 74, 73, 72, 72, 71, 70, 69, 69, 68, 67, 
  29:spo2_algorithm.c ****   66, 66, 65, 64, 63, 62, 62, 61, 60, 59, 58, 57, 56, 56, 55, 54, 53, 52, 51, 50, 
  30:spo2_algorithm.c ****   49, 48, 47, 46, 45, 44, 43, 42, 41, 40, 39, 38, 37, 36, 35, 34, 33, 31, 30, 29, 
ARM GAS  C:\Users\joshw\AppData\Local\Temp\ccyVVHcx.s 			page 2


  31:spo2_algorithm.c ****   28, 27, 26, 25, 23, 22, 21, 20, 19, 17, 16, 15, 14, 12, 11, 10, 9, 7, 6, 5, 
  32:spo2_algorithm.c ****   3, 2, 1 
  33:spo2_algorithm.c **** };
  34:spo2_algorithm.c **** 
  35:spo2_algorithm.c **** void maxim_heart_rate_and_oxygen_saturation(uint32_t *pun_ir_buffer, int32_t n_ir_buffer_length, ui
  36:spo2_algorithm.c ****                 int32_t *pn_heart_rate, int8_t *pch_hr_valid)
  37:spo2_algorithm.c **** /**
  38:spo2_algorithm.c **** * \brief        Calculate the heart rate and SpO2 level
  39:spo2_algorithm.c **** * \par          Details
  40:spo2_algorithm.c **** *               By detecting peaks of PPG cycle and corresponding AC/DC of red/infra-red signal, th
  41:spo2_algorithm.c **** *               Since this algorithm is aiming for Arm M0/M3, formula for SPO2 did not achieve the 
  42:spo2_algorithm.c **** *               Thus, accurate SPO2 is precalculated and saved into uch_spo2_table[] per each ratio
  43:spo2_algorithm.c **** *
  44:spo2_algorithm.c **** * \param[in]    *pun_ir_buffer           - IR sensor data buffer
  45:spo2_algorithm.c **** * \param[in]    n_ir_buffer_length       - IR sensor data buffer length
  46:spo2_algorithm.c **** * \param[in]    *pun_red_buffer          - Red sensor data buffer
  47:spo2_algorithm.c **** * \param[out]   *pn_spo2                 - Calculated SpO2 value
  48:spo2_algorithm.c **** * \param[out]   *pch_spo2_valid          - 1 if the calculated SpO2 value is valid
  49:spo2_algorithm.c **** * \param[out]   *pn_heart_rate           - Calculated heart rate value
  50:spo2_algorithm.c **** * \param[out]   *pch_hr_valid            - 1 if the calculated heart rate value is valid
  51:spo2_algorithm.c **** *
  52:spo2_algorithm.c **** * \retval       None
  53:spo2_algorithm.c **** */
  54:spo2_algorithm.c **** {
  55:spo2_algorithm.c ****   uint32_t un_ir_mean;
  56:spo2_algorithm.c ****   int32_t k, n_i_ratio_count;
  57:spo2_algorithm.c ****   int32_t i, n_exact_ir_valley_locs_count, n_middle_idx;
  58:spo2_algorithm.c ****   int32_t n_th1, n_npks;   
  59:spo2_algorithm.c ****   int32_t an_ir_valley_locs[15];
  60:spo2_algorithm.c ****   int32_t n_peak_interval_sum;
  61:spo2_algorithm.c ****   
  62:spo2_algorithm.c ****   int32_t n_y_ac, n_x_ac;
  63:spo2_algorithm.c ****   int32_t n_spo2_calc; 
  64:spo2_algorithm.c ****   int32_t n_y_dc_max, n_x_dc_max; 
  65:spo2_algorithm.c ****   int32_t n_y_dc_max_idx = 0;
  66:spo2_algorithm.c ****   int32_t n_x_dc_max_idx = 0; 
  67:spo2_algorithm.c ****   int32_t an_ratio[5], n_ratio_average; 
  68:spo2_algorithm.c ****   int32_t n_nume, n_denom;
  69:spo2_algorithm.c **** 
  70:spo2_algorithm.c ****   // calculates DC mean and subtract DC from ir
  71:spo2_algorithm.c ****   un_ir_mean = 0; 
  72:spo2_algorithm.c ****   for (k = 0; k < n_ir_buffer_length; k++) 
  73:spo2_algorithm.c ****     un_ir_mean += pun_ir_buffer[k];
  74:spo2_algorithm.c ****   un_ir_mean = un_ir_mean / n_ir_buffer_length;
  75:spo2_algorithm.c ****     
  76:spo2_algorithm.c ****   // remove DC and invert signal so that we can use peak detector as valley detector
  77:spo2_algorithm.c ****   for (k = 0; k < n_ir_buffer_length; k++)  
  78:spo2_algorithm.c ****     an_x[k] = -1 * (pun_ir_buffer[k] - un_ir_mean); 
  79:spo2_algorithm.c ****     
  80:spo2_algorithm.c ****   // 4 pt Moving Average
  81:spo2_algorithm.c ****   for(k = 0; k < BUFFER_SIZE - MA4_SIZE; k++){
  82:spo2_algorithm.c ****     an_x[k] = (an_x[k] + an_x[k+1] + an_x[k+2] + an_x[k+3]) / (int)4;        
  83:spo2_algorithm.c ****   }
  84:spo2_algorithm.c ****   
  85:spo2_algorithm.c ****   // calculate threshold  
  86:spo2_algorithm.c ****   n_th1 = 0; 
  87:spo2_algorithm.c ****   for (k = 0; k < BUFFER_SIZE; k++){
ARM GAS  C:\Users\joshw\AppData\Local\Temp\ccyVVHcx.s 			page 3


  88:spo2_algorithm.c ****     n_th1 += an_x[k];
  89:spo2_algorithm.c ****   }
  90:spo2_algorithm.c ****   n_th1 = n_th1 / (BUFFER_SIZE);
  91:spo2_algorithm.c ****   if(n_th1 < 30) n_th1 = 30; // min allowed
  92:spo2_algorithm.c ****   if(n_th1 > 60) n_th1 = 60; // max allowed
  93:spo2_algorithm.c **** 
  94:spo2_algorithm.c ****   for (k = 0; k < 15; k++) an_ir_valley_locs[k] = 0;
  95:spo2_algorithm.c ****   
  96:spo2_algorithm.c ****   // since we flipped signal, we use peak detector as valley detector
  97:spo2_algorithm.c ****   maxim_find_peaks(an_ir_valley_locs, &n_npks, an_x, BUFFER_SIZE, n_th1, 4, 15); //peak_height, pea
  98:spo2_algorithm.c ****   
  99:spo2_algorithm.c ****   n_peak_interval_sum = 0;
 100:spo2_algorithm.c ****   if (n_npks >= 2){
 101:spo2_algorithm.c ****     for (k = 1; k < n_npks; k++) 
 102:spo2_algorithm.c ****       n_peak_interval_sum += (an_ir_valley_locs[k] - an_ir_valley_locs[k-1]);
 103:spo2_algorithm.c ****     n_peak_interval_sum = n_peak_interval_sum / (n_npks - 1);
 104:spo2_algorithm.c ****     *pn_heart_rate = (int32_t)((FreqS * 60) / n_peak_interval_sum);
 105:spo2_algorithm.c ****     *pch_hr_valid = 1;
 106:spo2_algorithm.c ****   }
 107:spo2_algorithm.c ****   else { 
 108:spo2_algorithm.c ****     *pn_heart_rate = -999; // unable to calculate because # of peaks are too small
 109:spo2_algorithm.c ****     *pch_hr_valid = 0;
 110:spo2_algorithm.c ****   }
 111:spo2_algorithm.c **** 
 112:spo2_algorithm.c ****   // load raw value again for SPO2 calculation : RED(=y) and IR(=X)
 113:spo2_algorithm.c ****   for (k = 0; k < n_ir_buffer_length; k++) {
 114:spo2_algorithm.c ****     an_x[k] = pun_ir_buffer[k]; 
 115:spo2_algorithm.c ****     an_y[k] = pun_red_buffer[k]; 
 116:spo2_algorithm.c ****   }
 117:spo2_algorithm.c **** 
 118:spo2_algorithm.c ****   // find precise min near an_ir_valley_locs
 119:spo2_algorithm.c ****   n_exact_ir_valley_locs_count = n_npks; 
 120:spo2_algorithm.c ****   
 121:spo2_algorithm.c ****   // using exact_ir_valley_locs, find ir-red DC and ir-red AC for SPO2 calibration ratio
 122:spo2_algorithm.c ****   // finding AC/DC maximum of raw
 123:spo2_algorithm.c ****   n_ratio_average = 0; 
 124:spo2_algorithm.c ****   n_i_ratio_count = 0; 
 125:spo2_algorithm.c ****   for(k = 0; k < 5; k++) an_ratio[k] = 0;
 126:spo2_algorithm.c ****   
 127:spo2_algorithm.c ****   for (k = 0; k < n_exact_ir_valley_locs_count; k++){
 128:spo2_algorithm.c ****     if (an_ir_valley_locs[k] > BUFFER_SIZE){
 129:spo2_algorithm.c ****       *pn_spo2 = -999; // do not use SPO2 since valley loc is out of range
 130:spo2_algorithm.c ****       *pch_spo2_valid = 0; 
 131:spo2_algorithm.c ****       return;
 132:spo2_algorithm.c ****     }
 133:spo2_algorithm.c ****   }
 134:spo2_algorithm.c ****   
 135:spo2_algorithm.c ****   // find max between two valley locations 
 136:spo2_algorithm.c ****   // and use ratio between AC component of IR & Red and DC component of IR & Red for SPO2 
 137:spo2_algorithm.c ****   for (k = 0; k < n_exact_ir_valley_locs_count - 1; k++){
 138:spo2_algorithm.c ****     n_y_dc_max = -16777216; 
 139:spo2_algorithm.c ****     n_x_dc_max = -16777216; 
 140:spo2_algorithm.c ****     
 141:spo2_algorithm.c ****     if (an_ir_valley_locs[k+1] - an_ir_valley_locs[k] > 3){
 142:spo2_algorithm.c ****       for (i = an_ir_valley_locs[k]; i < an_ir_valley_locs[k+1]; i++){
 143:spo2_algorithm.c ****         if (an_x[i] > n_x_dc_max) {n_x_dc_max = an_x[i]; n_x_dc_max_idx = i;}
 144:spo2_algorithm.c ****         if (an_y[i] > n_y_dc_max) {n_y_dc_max = an_y[i]; n_y_dc_max_idx = i;}
ARM GAS  C:\Users\joshw\AppData\Local\Temp\ccyVVHcx.s 			page 4


 145:spo2_algorithm.c ****       }
 146:spo2_algorithm.c ****       
 147:spo2_algorithm.c ****       n_y_ac = (an_y[an_ir_valley_locs[k+1]] - an_y[an_ir_valley_locs[k]]) * (n_y_dc_max_idx - an_i
 148:spo2_algorithm.c ****       n_y_ac = an_y[an_ir_valley_locs[k]] + n_y_ac / (an_ir_valley_locs[k+1] - an_ir_valley_locs[k]
 149:spo2_algorithm.c ****       n_y_ac = an_y[n_y_dc_max_idx] - n_y_ac; // subtracting linear DC components from raw 
 150:spo2_algorithm.c ****       
 151:spo2_algorithm.c ****       n_x_ac = (an_x[an_ir_valley_locs[k+1]] - an_x[an_ir_valley_locs[k]]) * (n_x_dc_max_idx - an_i
 152:spo2_algorithm.c ****       n_x_ac = an_x[an_ir_valley_locs[k]] + n_x_ac / (an_ir_valley_locs[k+1] - an_ir_valley_locs[k]
 153:spo2_algorithm.c ****       n_x_ac = an_x[n_y_dc_max_idx] - n_x_ac; // subtracting linear DC components from raw 
 154:spo2_algorithm.c ****       
 155:spo2_algorithm.c ****       n_nume = (n_y_ac * n_x_dc_max) >> 7; //prepare X100 to preserve floating value
 156:spo2_algorithm.c ****       n_denom = (n_x_ac * n_y_dc_max) >> 7;
 157:spo2_algorithm.c ****       
 158:spo2_algorithm.c ****       if (n_denom > 0 && n_i_ratio_count < 5 && n_nume != 0)
 159:spo2_algorithm.c ****       {   
 160:spo2_algorithm.c ****         an_ratio[n_i_ratio_count] = (n_nume * 100) / n_denom; //formula is (n_y_ac * n_x_dc_max) / 
 161:spo2_algorithm.c ****         n_i_ratio_count++;
 162:spo2_algorithm.c ****       }
 163:spo2_algorithm.c ****     }
 164:spo2_algorithm.c ****   }
 165:spo2_algorithm.c ****   
 166:spo2_algorithm.c ****   // choose median value since PPG signal may vary from beat to beat
 167:spo2_algorithm.c ****   maxim_sort_ascend(an_ratio, n_i_ratio_count);
 168:spo2_algorithm.c ****   n_middle_idx = n_i_ratio_count / 2;
 169:spo2_algorithm.c **** 
 170:spo2_algorithm.c ****   if (n_middle_idx > 1)
 171:spo2_algorithm.c ****     n_ratio_average = (an_ratio[n_middle_idx-1] + an_ratio[n_middle_idx]) / 2; // use median
 172:spo2_algorithm.c ****   else
 173:spo2_algorithm.c ****     n_ratio_average = an_ratio[n_middle_idx];
 174:spo2_algorithm.c **** 
 175:spo2_algorithm.c ****   if(n_ratio_average > 2 && n_ratio_average < 184){
 176:spo2_algorithm.c ****     n_spo2_calc = uch_spo2_table[n_ratio_average];
 177:spo2_algorithm.c ****     *pn_spo2 = n_spo2_calc;
 178:spo2_algorithm.c ****     *pch_spo2_valid = 1; // float_SPO2 = -45.060*n_ratio_average*n_ratio_average/10000 + 30.354*n_r
 179:spo2_algorithm.c ****   }
 180:spo2_algorithm.c ****   else{
 181:spo2_algorithm.c ****     *pn_spo2 = -999; // do not use SPO2 since signal ratio is out of range
 182:spo2_algorithm.c ****     *pch_spo2_valid = 0; 
 183:spo2_algorithm.c ****   }
 184:spo2_algorithm.c **** }
 185:spo2_algorithm.c **** 
 186:spo2_algorithm.c **** 
 187:spo2_algorithm.c **** void maxim_find_peaks(int32_t *pn_locs, int32_t *n_npks, int32_t *pn_x, int32_t n_size, int32_t n_m
 188:spo2_algorithm.c **** /**
 189:spo2_algorithm.c **** * \brief        Find peaks
 190:spo2_algorithm.c **** * \par          Details
 191:spo2_algorithm.c **** *               Find at most MAX_NUM peaks above MIN_HEIGHT separated by at least MIN_DISTANCE
 192:spo2_algorithm.c **** *
 193:spo2_algorithm.c **** * \retval       None
 194:spo2_algorithm.c **** */
 195:spo2_algorithm.c **** {
 196:spo2_algorithm.c ****   maxim_peaks_above_min_height(pn_locs, n_npks, pn_x, n_size, n_min_height);
 197:spo2_algorithm.c ****   maxim_remove_close_peaks(pn_locs, n_npks, pn_x, n_min_distance);
 198:spo2_algorithm.c ****   *n_npks = min(*n_npks, n_max_num);
 199:spo2_algorithm.c **** }
 200:spo2_algorithm.c **** 
 201:spo2_algorithm.c **** void maxim_peaks_above_min_height(int32_t *pn_locs, int32_t *n_npks, int32_t *pn_x, int32_t n_size,
ARM GAS  C:\Users\joshw\AppData\Local\Temp\ccyVVHcx.s 			page 5


 202:spo2_algorithm.c **** /**
 203:spo2_algorithm.c **** * \brief        Find peaks above n_min_height
 204:spo2_algorithm.c **** * \par          Details
 205:spo2_algorithm.c **** *               Find all peaks above MIN_HEIGHT
 206:spo2_algorithm.c **** *
 207:spo2_algorithm.c **** * \retval       None
 208:spo2_algorithm.c **** */
 209:spo2_algorithm.c **** {
  28              		.loc 1 209 0
  29              		.cfi_startproc
  30              		@ args = 4, pretend = 0, frame = 8
  31              		@ frame_needed = 0, uses_anonymous_args = 0
  32              	.LVL0:
  33 0000 F0B5     		push	{r4, r5, r6, r7, lr}
  34              		.cfi_def_cfa_offset 20
  35              		.cfi_offset 4, -20
  36              		.cfi_offset 5, -16
  37              		.cfi_offset 6, -12
  38              		.cfi_offset 7, -8
  39              		.cfi_offset 14, -4
  40 0002 4746     		mov	r7, r8
  41 0004 80B4     		push	{r7}
  42              		.cfi_def_cfa_offset 24
  43              		.cfi_offset 8, -24
  44 0006 82B0     		sub	sp, sp, #8
  45              		.cfi_def_cfa_offset 32
  46 0008 0190     		str	r0, [sp, #4]
  47 000a 0800     		movs	r0, r1
  48              	.LVL1:
  49 000c 1900     		movs	r1, r3
  50              	.LVL2:
  51 000e 089B     		ldr	r3, [sp, #32]
  52              	.LVL3:
  53 0010 9846     		mov	r8, r3
  54              	.LVL4:
 210:spo2_algorithm.c ****   int32_t i = 1, n_width;
 211:spo2_algorithm.c ****   *n_npks = 0;
  55              		.loc 1 211 0
  56 0012 0023     		movs	r3, #0
  57 0014 0360     		str	r3, [r0]
 210:spo2_algorithm.c ****   int32_t i = 1, n_width;
  58              		.loc 1 210 0
  59 0016 0126     		movs	r6, #1
 212:spo2_algorithm.c ****   
 213:spo2_algorithm.c ****   while (i < n_size - 1){
  60              		.loc 1 213 0
  61 0018 28E0     		b	.L2
  62              	.LVL5:
  63              	.L8:
 214:spo2_algorithm.c ****     if (pn_x[i] > n_min_height && pn_x[i] > pn_x[i-1]){      // find left edge of potential peaks
  64              		.loc 1 214 0
  65 001a B300     		lsls	r3, r6, #2
  66 001c 9F58     		ldr	r7, [r3, r2]
  67 001e 4745     		cmp	r7, r8
  68 0020 1FDD     		ble	.L3
  69              		.loc 1 214 0 is_stmt 0 discriminator 1
  70 0022 164B     		ldr	r3, .L12
ARM GAS  C:\Users\joshw\AppData\Local\Temp\ccyVVHcx.s 			page 6


  71 0024 F318     		adds	r3, r6, r3
  72 0026 9B00     		lsls	r3, r3, #2
  73 0028 9B58     		ldr	r3, [r3, r2]
  74 002a 9F42     		cmp	r7, r3
  75 002c 02DC     		bgt	.L9
  76 002e 18E0     		b	.L3
  77              	.LVL6:
  78              	.L6:
 215:spo2_algorithm.c ****       n_width = 1;
 216:spo2_algorithm.c ****       while (i + n_width < n_size && pn_x[i] == pn_x[i+n_width])  // find flat peaks
 217:spo2_algorithm.c ****         n_width++;
  79              		.loc 1 217 0 is_stmt 1
  80 0030 0135     		adds	r5, r5, #1
  81              	.LVL7:
  82 0032 00E0     		b	.L4
  83              	.LVL8:
  84              	.L9:
  85 0034 0125     		movs	r5, #1
  86              	.L4:
  87              	.LVL9:
 216:spo2_algorithm.c ****         n_width++;
  88              		.loc 1 216 0
  89 0036 7419     		adds	r4, r6, r5
  90 0038 A142     		cmp	r1, r4
  91 003a 03DD     		ble	.L5
 216:spo2_algorithm.c ****         n_width++;
  92              		.loc 1 216 0 is_stmt 0 discriminator 1
  93 003c A300     		lsls	r3, r4, #2
  94 003e 9B58     		ldr	r3, [r3, r2]
  95 0040 9F42     		cmp	r7, r3
  96 0042 F5D0     		beq	.L6
  97              	.L5:
 218:spo2_algorithm.c ****       if (pn_x[i] > pn_x[i+n_width] && (*n_npks) < 15){      // find right edge of peaks
  98              		.loc 1 218 0 is_stmt 1
  99 0044 A300     		lsls	r3, r4, #2
 100 0046 9B58     		ldr	r3, [r3, r2]
 101 0048 9F42     		cmp	r7, r3
 102 004a 0CDD     		ble	.L10
 103              		.loc 1 218 0 is_stmt 0 discriminator 1
 104 004c 0368     		ldr	r3, [r0]
 105 004e 0E2B     		cmp	r3, #14
 106 0050 0BDC     		bgt	.L11
 219:spo2_algorithm.c ****         pn_locs[(*n_npks)++] = i;    
 107              		.loc 1 219 0 is_stmt 1
 108 0052 5C1C     		adds	r4, r3, #1
 109 0054 0460     		str	r4, [r0]
 110 0056 9B00     		lsls	r3, r3, #2
 111 0058 019C     		ldr	r4, [sp, #4]
 112 005a E650     		str	r6, [r4, r3]
 220:spo2_algorithm.c ****         // for flat peaks, peak location is left edge
 221:spo2_algorithm.c ****         i += n_width + 1;
 113              		.loc 1 221 0
 114 005c 0135     		adds	r5, r5, #1
 115              	.LVL10:
 116 005e 7619     		adds	r6, r6, r5
 117              	.LVL11:
 118 0060 04E0     		b	.L2
ARM GAS  C:\Users\joshw\AppData\Local\Temp\ccyVVHcx.s 			page 7


 119              	.LVL12:
 120              	.L3:
 222:spo2_algorithm.c ****       }
 223:spo2_algorithm.c ****       else
 224:spo2_algorithm.c ****         i += n_width;
 225:spo2_algorithm.c ****     }
 226:spo2_algorithm.c ****     else
 227:spo2_algorithm.c ****       i++;
 121              		.loc 1 227 0
 122 0062 0136     		adds	r6, r6, #1
 123              	.LVL13:
 124 0064 02E0     		b	.L2
 125              	.LVL14:
 126              	.L10:
 224:spo2_algorithm.c ****     }
 127              		.loc 1 224 0
 128 0066 2600     		movs	r6, r4
 129              	.LVL15:
 130 0068 00E0     		b	.L2
 131              	.LVL16:
 132              	.L11:
 133 006a 2600     		movs	r6, r4
 134              	.LVL17:
 135              	.L2:
 213:spo2_algorithm.c ****     if (pn_x[i] > n_min_height && pn_x[i] > pn_x[i-1]){      // find left edge of potential peaks
 136              		.loc 1 213 0
 137 006c 4B1E     		subs	r3, r1, #1
 138 006e 9E42     		cmp	r6, r3
 139 0070 D3DB     		blt	.L8
 228:spo2_algorithm.c ****   }
 229:spo2_algorithm.c **** }
 140              		.loc 1 229 0
 141 0072 02B0     		add	sp, sp, #8
 142              		@ sp needed
 143              	.LVL18:
 144 0074 04BC     		pop	{r2}
 145 0076 9046     		mov	r8, r2
 146 0078 F0BD     		pop	{r4, r5, r6, r7, pc}
 147              	.L13:
 148 007a C046     		.align	2
 149              	.L12:
 150 007c FFFFFF3F 		.word	1073741823
 151              		.cfi_endproc
 152              	.LFE34:
 153              		.size	maxim_peaks_above_min_height, .-maxim_peaks_above_min_height
 154              		.section	.text.maxim_sort_ascend,"ax",%progbits
 155              		.align	2
 156              		.global	maxim_sort_ascend
 157              		.code	16
 158              		.thumb_func
 159              		.type	maxim_sort_ascend, %function
 160              	maxim_sort_ascend:
 161              	.LFB36:
 230:spo2_algorithm.c **** 
 231:spo2_algorithm.c **** void maxim_remove_close_peaks(int32_t *pn_locs, int32_t *pn_npks, int32_t *pn_x, int32_t n_min_dist
 232:spo2_algorithm.c **** /**
 233:spo2_algorithm.c **** * \brief        Remove peaks
ARM GAS  C:\Users\joshw\AppData\Local\Temp\ccyVVHcx.s 			page 8


 234:spo2_algorithm.c **** * \par          Details
 235:spo2_algorithm.c **** *               Remove peaks separated by less than MIN_DISTANCE
 236:spo2_algorithm.c **** *
 237:spo2_algorithm.c **** * \retval       None
 238:spo2_algorithm.c **** */
 239:spo2_algorithm.c **** {
 240:spo2_algorithm.c ****   int32_t i, j, n_old_npks, n_dist;
 241:spo2_algorithm.c ****     
 242:spo2_algorithm.c ****   /* Order peaks from large to small */
 243:spo2_algorithm.c ****   maxim_sort_indices_descend(pn_x, pn_locs, *pn_npks);
 244:spo2_algorithm.c **** 
 245:spo2_algorithm.c ****   for (i = -1; i < *pn_npks; i++){
 246:spo2_algorithm.c ****     n_old_npks = *pn_npks;
 247:spo2_algorithm.c ****     *pn_npks = i + 1;
 248:spo2_algorithm.c ****     for (j = i + 1; j < n_old_npks; j++){
 249:spo2_algorithm.c ****       n_dist = pn_locs[j] - (i == -1 ? -1 : pn_locs[i]); // lag-zero peak of autocorr is at index -
 250:spo2_algorithm.c ****       if (n_dist > n_min_distance || n_dist < -n_min_distance)
 251:spo2_algorithm.c ****         pn_locs[(*pn_npks)++] = pn_locs[j];
 252:spo2_algorithm.c ****     }
 253:spo2_algorithm.c ****   }
 254:spo2_algorithm.c **** 
 255:spo2_algorithm.c ****   // Resort indices into ascending order
 256:spo2_algorithm.c ****   maxim_sort_ascend(pn_locs, *pn_npks);
 257:spo2_algorithm.c **** }
 258:spo2_algorithm.c **** 
 259:spo2_algorithm.c **** void maxim_sort_ascend(int32_t *pn_x, int32_t n_size) 
 260:spo2_algorithm.c **** /**
 261:spo2_algorithm.c **** * \brief        Sort array
 262:spo2_algorithm.c **** * \par          Details
 263:spo2_algorithm.c **** *               Sort array in ascending order (insertion sort algorithm)
 264:spo2_algorithm.c **** *
 265:spo2_algorithm.c **** * \retval       None
 266:spo2_algorithm.c **** */
 267:spo2_algorithm.c **** {
 162              		.loc 1 267 0
 163              		.cfi_startproc
 164              		@ args = 0, pretend = 0, frame = 0
 165              		@ frame_needed = 0, uses_anonymous_args = 0
 166              	.LVL19:
 167 0000 70B5     		push	{r4, r5, r6, lr}
 168              		.cfi_def_cfa_offset 16
 169              		.cfi_offset 4, -16
 170              		.cfi_offset 5, -12
 171              		.cfi_offset 6, -8
 172              		.cfi_offset 14, -4
 173              	.LVL20:
 268:spo2_algorithm.c ****   int32_t i, j, n_temp;
 269:spo2_algorithm.c ****   for (i = 1; i < n_size; i++) {
 174              		.loc 1 269 0
 175 0002 0126     		movs	r6, #1
 176 0004 11E0     		b	.L15
 177              	.LVL21:
 178              	.L19:
 270:spo2_algorithm.c ****     n_temp = pn_x[i];
 179              		.loc 1 270 0
 180 0006 B300     		lsls	r3, r6, #2
 181 0008 C558     		ldr	r5, [r0, r3]
ARM GAS  C:\Users\joshw\AppData\Local\Temp\ccyVVHcx.s 			page 9


 182              	.LVL22:
 271:spo2_algorithm.c ****     for (j = i; j > 0 && n_temp < pn_x[j-1]; j--)
 183              		.loc 1 271 0
 184 000a 3300     		movs	r3, r6
 185 000c 02E0     		b	.L16
 186              	.LVL23:
 187              	.L18:
 272:spo2_algorithm.c ****       pn_x[j] = pn_x[j-1];
 188              		.loc 1 272 0 discriminator 4
 189 000e 9C00     		lsls	r4, r3, #2
 190 0010 0251     		str	r2, [r0, r4]
 271:spo2_algorithm.c ****     for (j = i; j > 0 && n_temp < pn_x[j-1]; j--)
 191              		.loc 1 271 0 discriminator 4
 192 0012 013B     		subs	r3, r3, #1
 193              	.LVL24:
 194              	.L16:
 271:spo2_algorithm.c ****     for (j = i; j > 0 && n_temp < pn_x[j-1]; j--)
 195              		.loc 1 271 0 is_stmt 0 discriminator 1
 196 0014 002B     		cmp	r3, #0
 197 0016 05DD     		ble	.L17
 271:spo2_algorithm.c ****     for (j = i; j > 0 && n_temp < pn_x[j-1]; j--)
 198              		.loc 1 271 0 discriminator 3
 199 0018 054A     		ldr	r2, .L20
 200 001a 9A18     		adds	r2, r3, r2
 201 001c 9200     		lsls	r2, r2, #2
 202 001e 1258     		ldr	r2, [r2, r0]
 203 0020 9542     		cmp	r5, r2
 204 0022 F4DB     		blt	.L18
 205              	.L17:
 273:spo2_algorithm.c ****     pn_x[j] = n_temp;
 206              		.loc 1 273 0 is_stmt 1 discriminator 2
 207 0024 9B00     		lsls	r3, r3, #2
 208              	.LVL25:
 209 0026 C550     		str	r5, [r0, r3]
 269:spo2_algorithm.c ****     n_temp = pn_x[i];
 210              		.loc 1 269 0 discriminator 2
 211 0028 0136     		adds	r6, r6, #1
 212              	.LVL26:
 213              	.L15:
 269:spo2_algorithm.c ****     n_temp = pn_x[i];
 214              		.loc 1 269 0 is_stmt 0 discriminator 1
 215 002a 8E42     		cmp	r6, r1
 216 002c EBDB     		blt	.L19
 274:spo2_algorithm.c ****   }
 275:spo2_algorithm.c **** }
 217              		.loc 1 275 0 is_stmt 1
 218              		@ sp needed
 219              	.LVL27:
 220 002e 70BD     		pop	{r4, r5, r6, pc}
 221              	.L21:
 222              		.align	2
 223              	.L20:
 224 0030 FFFFFF3F 		.word	1073741823
 225              		.cfi_endproc
 226              	.LFE36:
 227              		.size	maxim_sort_ascend, .-maxim_sort_ascend
 228              		.section	.text.maxim_sort_indices_descend,"ax",%progbits
ARM GAS  C:\Users\joshw\AppData\Local\Temp\ccyVVHcx.s 			page 10


 229              		.align	2
 230              		.global	maxim_sort_indices_descend
 231              		.code	16
 232              		.thumb_func
 233              		.type	maxim_sort_indices_descend, %function
 234              	maxim_sort_indices_descend:
 235              	.LFB37:
 276:spo2_algorithm.c **** 
 277:spo2_algorithm.c **** void maxim_sort_indices_descend(int32_t *pn_x, int32_t *pn_indx, int32_t n_size)
 278:spo2_algorithm.c **** /**
 279:spo2_algorithm.c **** * \brief        Sort indices
 280:spo2_algorithm.c **** * \par          Details
 281:spo2_algorithm.c **** *               Sort indices according to descending order (insertion sort algorithm)
 282:spo2_algorithm.c **** *
 283:spo2_algorithm.c **** * \retval       None
 284:spo2_algorithm.c **** */ 
 285:spo2_algorithm.c **** {
 236              		.loc 1 285 0
 237              		.cfi_startproc
 238              		@ args = 0, pretend = 0, frame = 0
 239              		@ frame_needed = 0, uses_anonymous_args = 0
 240              	.LVL28:
 241 0000 F0B5     		push	{r4, r5, r6, r7, lr}
 242              		.cfi_def_cfa_offset 20
 243              		.cfi_offset 4, -20
 244              		.cfi_offset 5, -16
 245              		.cfi_offset 6, -12
 246              		.cfi_offset 7, -8
 247              		.cfi_offset 14, -4
 248 0002 9446     		mov	ip, r2
 249              	.LVL29:
 286:spo2_algorithm.c ****   int32_t i, j, n_temp;
 287:spo2_algorithm.c ****   for (i = 1; i < n_size; i++) {
 250              		.loc 1 287 0
 251 0004 0122     		movs	r2, #1
 252              	.LVL30:
 253 0006 15E0     		b	.L23
 254              	.LVL31:
 255              	.L27:
 288:spo2_algorithm.c ****     n_temp = pn_indx[i];
 256              		.loc 1 288 0
 257 0008 9300     		lsls	r3, r2, #2
 258 000a CF58     		ldr	r7, [r1, r3]
 259              	.LVL32:
 289:spo2_algorithm.c ****     for (j = i; j > 0 && pn_x[n_temp] > pn_x[pn_indx[j-1]]; j--)
 260              		.loc 1 289 0
 261 000c 1300     		movs	r3, r2
 262 000e 02E0     		b	.L24
 263              	.LVL33:
 264              	.L26:
 290:spo2_algorithm.c ****       pn_indx[j] = pn_indx[j-1];
 265              		.loc 1 290 0 discriminator 4
 266 0010 9D00     		lsls	r5, r3, #2
 267 0012 4C51     		str	r4, [r1, r5]
 289:spo2_algorithm.c ****     for (j = i; j > 0 && pn_x[n_temp] > pn_x[pn_indx[j-1]]; j--)
 268              		.loc 1 289 0 discriminator 4
 269 0014 013B     		subs	r3, r3, #1
ARM GAS  C:\Users\joshw\AppData\Local\Temp\ccyVVHcx.s 			page 11


 270              	.LVL34:
 271              	.L24:
 289:spo2_algorithm.c ****     for (j = i; j > 0 && pn_x[n_temp] > pn_x[pn_indx[j-1]]; j--)
 272              		.loc 1 289 0 is_stmt 0 discriminator 1
 273 0016 002B     		cmp	r3, #0
 274 0018 09DD     		ble	.L25
 289:spo2_algorithm.c ****     for (j = i; j > 0 && pn_x[n_temp] > pn_x[pn_indx[j-1]]; j--)
 275              		.loc 1 289 0 discriminator 3
 276 001a BC00     		lsls	r4, r7, #2
 277 001c 2658     		ldr	r6, [r4, r0]
 278 001e 074C     		ldr	r4, .L28
 279 0020 1C19     		adds	r4, r3, r4
 280 0022 A400     		lsls	r4, r4, #2
 281 0024 6458     		ldr	r4, [r4, r1]
 282 0026 A500     		lsls	r5, r4, #2
 283 0028 2D58     		ldr	r5, [r5, r0]
 284 002a AE42     		cmp	r6, r5
 285 002c F0DC     		bgt	.L26
 286              	.L25:
 291:spo2_algorithm.c ****     pn_indx[j] = n_temp;
 287              		.loc 1 291 0 is_stmt 1 discriminator 2
 288 002e 9B00     		lsls	r3, r3, #2
 289              	.LVL35:
 290 0030 CF50     		str	r7, [r1, r3]
 287:spo2_algorithm.c ****     n_temp = pn_indx[i];
 291              		.loc 1 287 0 discriminator 2
 292 0032 0132     		adds	r2, r2, #1
 293              	.LVL36:
 294              	.L23:
 287:spo2_algorithm.c ****     n_temp = pn_indx[i];
 295              		.loc 1 287 0 is_stmt 0 discriminator 1
 296 0034 6245     		cmp	r2, ip
 297 0036 E7DB     		blt	.L27
 292:spo2_algorithm.c ****   }
 293:spo2_algorithm.c **** }
 298              		.loc 1 293 0 is_stmt 1
 299              		@ sp needed
 300 0038 F0BD     		pop	{r4, r5, r6, r7, pc}
 301              	.L29:
 302 003a C046     		.align	2
 303              	.L28:
 304 003c FFFFFF3F 		.word	1073741823
 305              		.cfi_endproc
 306              	.LFE37:
 307              		.size	maxim_sort_indices_descend, .-maxim_sort_indices_descend
 308              		.section	.text.maxim_remove_close_peaks,"ax",%progbits
 309              		.align	2
 310              		.global	maxim_remove_close_peaks
 311              		.code	16
 312              		.thumb_func
 313              		.type	maxim_remove_close_peaks, %function
 314              	maxim_remove_close_peaks:
 315              	.LFB35:
 239:spo2_algorithm.c ****   int32_t i, j, n_old_npks, n_dist;
 316              		.loc 1 239 0
 317              		.cfi_startproc
 318              		@ args = 0, pretend = 0, frame = 0
ARM GAS  C:\Users\joshw\AppData\Local\Temp\ccyVVHcx.s 			page 12


 319              		@ frame_needed = 0, uses_anonymous_args = 0
 320              	.LVL37:
 321 0000 F8B5     		push	{r3, r4, r5, r6, r7, lr}
 322              		.cfi_def_cfa_offset 24
 323              		.cfi_offset 3, -24
 324              		.cfi_offset 4, -20
 325              		.cfi_offset 5, -16
 326              		.cfi_offset 6, -12
 327              		.cfi_offset 7, -8
 328              		.cfi_offset 14, -4
 329 0002 4F46     		mov	r7, r9
 330 0004 4646     		mov	r6, r8
 331 0006 C0B4     		push	{r6, r7}
 332              		.cfi_def_cfa_offset 32
 333              		.cfi_offset 8, -32
 334              		.cfi_offset 9, -28
 335 0008 0400     		movs	r4, r0
 336 000a 0D00     		movs	r5, r1
 337 000c 1000     		movs	r0, r2
 338              	.LVL38:
 339 000e 1E00     		movs	r6, r3
 243:spo2_algorithm.c **** 
 340              		.loc 1 243 0
 341 0010 0A68     		ldr	r2, [r1]
 342              	.LVL39:
 343 0012 2100     		movs	r1, r4
 344              	.LVL40:
 345 0014 FFF7FEFF 		bl	maxim_sort_indices_descend
 346              	.LVL41:
 245:spo2_algorithm.c ****     n_old_npks = *pn_npks;
 347              		.loc 1 245 0
 348 0018 0127     		movs	r7, #1
 349 001a 7F42     		rsbs	r7, r7, #0
 350 001c 21E0     		b	.L31
 351              	.LVL42:
 352              	.L37:
 247:spo2_algorithm.c ****     for (j = i + 1; j < n_old_npks; j++){
 353              		.loc 1 247 0
 354 001e 7B1C     		adds	r3, r7, #1
 355              	.LVL43:
 356 0020 9C46     		mov	ip, r3
 357 0022 2B60     		str	r3, [r5]
 358              	.LVL44:
 248:spo2_algorithm.c ****       n_dist = pn_locs[j] - (i == -1 ? -1 : pn_locs[i]); // lag-zero peak of autocorr is at index -
 359              		.loc 1 248 0
 360 0024 1800     		movs	r0, r3
 361 0026 19E0     		b	.L32
 362              	.LVL45:
 363              	.L36:
 249:spo2_algorithm.c ****       if (n_dist > n_min_distance || n_dist < -n_min_distance)
 364              		.loc 1 249 0
 365 0028 8300     		lsls	r3, r0, #2
 366 002a E318     		adds	r3, r4, r3
 367 002c 1A68     		ldr	r2, [r3]
 368 002e 791C     		adds	r1, r7, #1
 369 0030 03D0     		beq	.L38
 249:spo2_algorithm.c ****       if (n_dist > n_min_distance || n_dist < -n_min_distance)
ARM GAS  C:\Users\joshw\AppData\Local\Temp\ccyVVHcx.s 			page 13


 370              		.loc 1 249 0 is_stmt 0 discriminator 1
 371 0032 B900     		lsls	r1, r7, #2
 372 0034 6158     		ldr	r1, [r4, r1]
 373 0036 8846     		mov	r8, r1
 374 0038 02E0     		b	.L33
 375              	.L38:
 249:spo2_algorithm.c ****       if (n_dist > n_min_distance || n_dist < -n_min_distance)
 376              		.loc 1 249 0
 377 003a 0121     		movs	r1, #1
 378 003c 4942     		rsbs	r1, r1, #0
 379 003e 8846     		mov	r8, r1
 380              	.L33:
 249:spo2_algorithm.c ****       if (n_dist > n_min_distance || n_dist < -n_min_distance)
 381              		.loc 1 249 0 discriminator 4
 382 0040 4146     		mov	r1, r8
 383 0042 521A     		subs	r2, r2, r1
 384              	.LVL46:
 250:spo2_algorithm.c ****         pn_locs[(*pn_npks)++] = pn_locs[j];
 385              		.loc 1 250 0 is_stmt 1 discriminator 4
 386 0044 B242     		cmp	r2, r6
 387 0046 02DC     		bgt	.L34
 250:spo2_algorithm.c ****         pn_locs[(*pn_npks)++] = pn_locs[j];
 388              		.loc 1 250 0 is_stmt 0 discriminator 1
 389 0048 7142     		rsbs	r1, r6, #0
 390 004a 8A42     		cmp	r2, r1
 391 004c 05DA     		bge	.L35
 392              	.L34:
 251:spo2_algorithm.c ****     }
 393              		.loc 1 251 0 is_stmt 1
 394 004e 2A68     		ldr	r2, [r5]
 395              	.LVL47:
 396 0050 511C     		adds	r1, r2, #1
 397 0052 2960     		str	r1, [r5]
 398              	.LVL48:
 399 0054 9200     		lsls	r2, r2, #2
 400 0056 1B68     		ldr	r3, [r3]
 401 0058 A350     		str	r3, [r4, r2]
 402              	.L35:
 248:spo2_algorithm.c ****       n_dist = pn_locs[j] - (i == -1 ? -1 : pn_locs[i]); // lag-zero peak of autocorr is at index -
 403              		.loc 1 248 0 discriminator 2
 404 005a 0130     		adds	r0, r0, #1
 405              	.LVL49:
 406              	.L32:
 248:spo2_algorithm.c ****       n_dist = pn_locs[j] - (i == -1 ? -1 : pn_locs[i]); // lag-zero peak of autocorr is at index -
 407              		.loc 1 248 0 is_stmt 0 discriminator 1
 408 005c 4845     		cmp	r0, r9
 409 005e E3DB     		blt	.L36
 245:spo2_algorithm.c ****     n_old_npks = *pn_npks;
 410              		.loc 1 245 0 is_stmt 1
 411 0060 6746     		mov	r7, ip
 412              	.LVL50:
 413              	.L31:
 245:spo2_algorithm.c ****     n_old_npks = *pn_npks;
 414              		.loc 1 245 0 is_stmt 0 discriminator 1
 415 0062 2B68     		ldr	r3, [r5]
 416 0064 9946     		mov	r9, r3
 417 0066 9F42     		cmp	r7, r3
ARM GAS  C:\Users\joshw\AppData\Local\Temp\ccyVVHcx.s 			page 14


 418 0068 D9DB     		blt	.L37
 256:spo2_algorithm.c **** }
 419              		.loc 1 256 0 is_stmt 1
 420 006a 1900     		movs	r1, r3
 421 006c 2000     		movs	r0, r4
 422 006e FFF7FEFF 		bl	maxim_sort_ascend
 423              	.LVL51:
 257:spo2_algorithm.c **** 
 424              		.loc 1 257 0
 425              		@ sp needed
 426              	.LVL52:
 427              	.LVL53:
 428              	.LVL54:
 429              	.LVL55:
 430 0072 0CBC     		pop	{r2, r3}
 431 0074 9046     		mov	r8, r2
 432 0076 9946     		mov	r9, r3
 433 0078 F8BD     		pop	{r3, r4, r5, r6, r7, pc}
 434              		.cfi_endproc
 435              	.LFE35:
 436              		.size	maxim_remove_close_peaks, .-maxim_remove_close_peaks
 437 007a C046     		.section	.text.maxim_find_peaks,"ax",%progbits
 438              		.align	2
 439              		.global	maxim_find_peaks
 440              		.code	16
 441              		.thumb_func
 442              		.type	maxim_find_peaks, %function
 443              	maxim_find_peaks:
 444              	.LFB33:
 195:spo2_algorithm.c ****   maxim_peaks_above_min_height(pn_locs, n_npks, pn_x, n_size, n_min_height);
 445              		.loc 1 195 0
 446              		.cfi_startproc
 447              		@ args = 12, pretend = 0, frame = 0
 448              		@ frame_needed = 0, uses_anonymous_args = 0
 449              	.LVL56:
 450 0000 70B5     		push	{r4, r5, r6, lr}
 451              		.cfi_def_cfa_offset 16
 452              		.cfi_offset 4, -16
 453              		.cfi_offset 5, -12
 454              		.cfi_offset 6, -8
 455              		.cfi_offset 14, -4
 456 0002 82B0     		sub	sp, sp, #8
 457              		.cfi_def_cfa_offset 24
 458 0004 0500     		movs	r5, r0
 459 0006 0C00     		movs	r4, r1
 460 0008 1600     		movs	r6, r2
 196:spo2_algorithm.c ****   maxim_remove_close_peaks(pn_locs, n_npks, pn_x, n_min_distance);
 461              		.loc 1 196 0
 462 000a 069A     		ldr	r2, [sp, #24]
 463              	.LVL57:
 464 000c 0092     		str	r2, [sp]
 465 000e 3200     		movs	r2, r6
 466 0010 FFF7FEFF 		bl	maxim_peaks_above_min_height
 467              	.LVL58:
 197:spo2_algorithm.c ****   *n_npks = min(*n_npks, n_max_num);
 468              		.loc 1 197 0
 469 0014 079B     		ldr	r3, [sp, #28]
ARM GAS  C:\Users\joshw\AppData\Local\Temp\ccyVVHcx.s 			page 15


 470 0016 3200     		movs	r2, r6
 471 0018 2100     		movs	r1, r4
 472 001a 2800     		movs	r0, r5
 473 001c FFF7FEFF 		bl	maxim_remove_close_peaks
 474              	.LVL59:
 198:spo2_algorithm.c **** }
 475              		.loc 1 198 0
 476 0020 2368     		ldr	r3, [r4]
 477 0022 089A     		ldr	r2, [sp, #32]
 478 0024 9342     		cmp	r3, r2
 479 0026 00DD     		ble	.L40
 480 0028 1300     		movs	r3, r2
 481              	.L40:
 482 002a 2360     		str	r3, [r4]
 199:spo2_algorithm.c **** 
 483              		.loc 1 199 0
 484 002c 02B0     		add	sp, sp, #8
 485              		@ sp needed
 486              	.LVL60:
 487              	.LVL61:
 488              	.LVL62:
 489 002e 70BD     		pop	{r4, r5, r6, pc}
 490              		.cfi_endproc
 491              	.LFE33:
 492              		.size	maxim_find_peaks, .-maxim_find_peaks
 493              		.global	__aeabi_uidiv
 494              		.global	__aeabi_idiv
 495              		.section	.text.maxim_heart_rate_and_oxygen_saturation,"ax",%progbits
 496              		.align	2
 497              		.global	maxim_heart_rate_and_oxygen_saturation
 498              		.code	16
 499              		.thumb_func
 500              		.type	maxim_heart_rate_and_oxygen_saturation, %function
 501              	maxim_heart_rate_and_oxygen_saturation:
 502              	.LFB32:
  54:spo2_algorithm.c ****   uint32_t un_ir_mean;
 503              		.loc 1 54 0
 504              		.cfi_startproc
 505              		@ args = 12, pretend = 0, frame = 120
 506              		@ frame_needed = 0, uses_anonymous_args = 0
 507              	.LVL63:
 508 0000 F0B5     		push	{r4, r5, r6, r7, lr}
 509              		.cfi_def_cfa_offset 20
 510              		.cfi_offset 4, -20
 511              		.cfi_offset 5, -16
 512              		.cfi_offset 6, -12
 513              		.cfi_offset 7, -8
 514              		.cfi_offset 14, -4
 515 0002 5F46     		mov	r7, fp
 516 0004 5646     		mov	r6, r10
 517 0006 4D46     		mov	r5, r9
 518 0008 4446     		mov	r4, r8
 519 000a F0B4     		push	{r4, r5, r6, r7}
 520              		.cfi_def_cfa_offset 36
 521              		.cfi_offset 8, -36
 522              		.cfi_offset 9, -32
 523              		.cfi_offset 10, -28
ARM GAS  C:\Users\joshw\AppData\Local\Temp\ccyVVHcx.s 			page 16


 524              		.cfi_offset 11, -24
 525 000c A3B0     		sub	sp, sp, #140
 526              		.cfi_def_cfa_offset 176
 527 000e 0600     		movs	r6, r0
 528 0010 0D00     		movs	r5, r1
 529 0012 1700     		movs	r7, r2
 530 0014 0B93     		str	r3, [sp, #44]
 531              	.LVL64:
  72:spo2_algorithm.c ****     un_ir_mean += pun_ir_buffer[k];
 532              		.loc 1 72 0
 533 0016 0023     		movs	r3, #0
 534              	.LVL65:
  71:spo2_algorithm.c ****   for (k = 0; k < n_ir_buffer_length; k++) 
 535              		.loc 1 71 0
 536 0018 0020     		movs	r0, #0
 537              	.LVL66:
  72:spo2_algorithm.c ****     un_ir_mean += pun_ir_buffer[k];
 538              		.loc 1 72 0
 539 001a 03E0     		b	.L42
 540              	.LVL67:
 541              	.L43:
  73:spo2_algorithm.c ****   un_ir_mean = un_ir_mean / n_ir_buffer_length;
 542              		.loc 1 73 0 discriminator 3
 543 001c 9A00     		lsls	r2, r3, #2
 544 001e 9259     		ldr	r2, [r2, r6]
 545 0020 8018     		adds	r0, r0, r2
 546              	.LVL68:
  72:spo2_algorithm.c ****     un_ir_mean += pun_ir_buffer[k];
 547              		.loc 1 72 0 discriminator 3
 548 0022 0133     		adds	r3, r3, #1
 549              	.LVL69:
 550              	.L42:
  72:spo2_algorithm.c ****     un_ir_mean += pun_ir_buffer[k];
 551              		.loc 1 72 0 is_stmt 0 discriminator 1
 552 0024 AB42     		cmp	r3, r5
 553 0026 F9DB     		blt	.L43
  74:spo2_algorithm.c ****     
 554              		.loc 1 74 0 is_stmt 1
 555 0028 2900     		movs	r1, r5
 556              	.LVL70:
 557 002a FFF7FEFF 		bl	__aeabi_uidiv
 558              	.LVL71:
 559 002e 0400     		movs	r4, r0
 560              	.LVL72:
  77:spo2_algorithm.c ****     an_x[k] = -1 * (pun_ir_buffer[k] - un_ir_mean); 
 561              		.loc 1 77 0
 562 0030 0023     		movs	r3, #0
 563 0032 05E0     		b	.L44
 564              	.LVL73:
 565              	.L45:
  78:spo2_algorithm.c ****     
 566              		.loc 1 78 0 discriminator 3
 567 0034 9900     		lsls	r1, r3, #2
 568 0036 8A59     		ldr	r2, [r1, r6]
 569 0038 A21A     		subs	r2, r4, r2
 570 003a A248     		ldr	r0, .L84
 571 003c 0A50     		str	r2, [r1, r0]
ARM GAS  C:\Users\joshw\AppData\Local\Temp\ccyVVHcx.s 			page 17


  77:spo2_algorithm.c ****     an_x[k] = -1 * (pun_ir_buffer[k] - un_ir_mean); 
 572              		.loc 1 77 0 discriminator 3
 573 003e 0133     		adds	r3, r3, #1
 574              	.LVL74:
 575              	.L44:
  77:spo2_algorithm.c ****     an_x[k] = -1 * (pun_ir_buffer[k] - un_ir_mean); 
 576              		.loc 1 77 0 is_stmt 0 discriminator 1
 577 0040 AB42     		cmp	r3, r5
 578 0042 F7DB     		blt	.L45
 579 0044 0024     		movs	r4, #0
 580              	.LVL75:
 581 0046 AC46     		mov	ip, r5
 582 0048 16E0     		b	.L46
 583              	.LVL76:
 584              	.L47:
  82:spo2_algorithm.c ****   }
 585              		.loc 1 82 0 is_stmt 1 discriminator 3
 586 004a 9E49     		ldr	r1, .L84
 587 004c A500     		lsls	r5, r4, #2
 588 004e 601C     		adds	r0, r4, #1
 589 0050 8300     		lsls	r3, r0, #2
 590 0052 5B58     		ldr	r3, [r3, r1]
 591 0054 6A58     		ldr	r2, [r5, r1]
 592 0056 9046     		mov	r8, r2
 593 0058 4344     		add	r3, r3, r8
 594 005a A21C     		adds	r2, r4, #2
 595 005c 9200     		lsls	r2, r2, #2
 596 005e 5258     		ldr	r2, [r2, r1]
 597 0060 9B18     		adds	r3, r3, r2
 598 0062 0334     		adds	r4, r4, #3
 599              	.LVL77:
 600 0064 A400     		lsls	r4, r4, #2
 601              	.LVL78:
 602 0066 6258     		ldr	r2, [r4, r1]
 603 0068 9B18     		adds	r3, r3, r2
 604 006a DA17     		asrs	r2, r3, #31
 605 006c 0324     		movs	r4, #3
 606 006e 2240     		ands	r2, r4
 607 0070 D318     		adds	r3, r2, r3
 608 0072 9B10     		asrs	r3, r3, #2
 609 0074 6B50     		str	r3, [r5, r1]
 610              	.LVL79:
  81:spo2_algorithm.c ****     an_x[k] = (an_x[k] + an_x[k+1] + an_x[k+2] + an_x[k+3]) / (int)4;        
 611              		.loc 1 81 0 discriminator 3
 612 0076 0400     		movs	r4, r0
 613              	.LVL80:
 614              	.L46:
  81:spo2_algorithm.c ****     an_x[k] = (an_x[k] + an_x[k+1] + an_x[k+2] + an_x[k+3]) / (int)4;        
 615              		.loc 1 81 0 is_stmt 0 discriminator 1
 616 0078 5F2C     		cmp	r4, #95
 617 007a E6DD     		ble	.L47
 618 007c 6546     		mov	r5, ip
 619 007e 0020     		movs	r0, #0
 620 0080 0023     		movs	r3, #0
 621 0082 04E0     		b	.L48
 622              	.LVL81:
 623              	.L49:
ARM GAS  C:\Users\joshw\AppData\Local\Temp\ccyVVHcx.s 			page 18


  88:spo2_algorithm.c ****   }
 624              		.loc 1 88 0 is_stmt 1 discriminator 3
 625 0084 9900     		lsls	r1, r3, #2
 626 0086 8F4A     		ldr	r2, .L84
 627 0088 8A58     		ldr	r2, [r1, r2]
 628 008a 8018     		adds	r0, r0, r2
 629              	.LVL82:
  87:spo2_algorithm.c ****     n_th1 += an_x[k];
 630              		.loc 1 87 0 discriminator 3
 631 008c 0133     		adds	r3, r3, #1
 632              	.LVL83:
 633              	.L48:
  87:spo2_algorithm.c ****     n_th1 += an_x[k];
 634              		.loc 1 87 0 is_stmt 0 discriminator 1
 635 008e 632B     		cmp	r3, #99
 636 0090 F8DD     		ble	.L49
  90:spo2_algorithm.c ****   if(n_th1 < 30) n_th1 = 30; // min allowed
 637              		.loc 1 90 0 is_stmt 1
 638 0092 6421     		movs	r1, #100
 639 0094 FFF7FEFF 		bl	__aeabi_idiv
 640              	.LVL84:
 641 0098 0400     		movs	r4, r0
 642              	.LVL85:
  91:spo2_algorithm.c ****   if(n_th1 > 60) n_th1 = 60; // max allowed
 643              		.loc 1 91 0
 644 009a 1D28     		cmp	r0, #29
 645 009c 00DC     		bgt	.L50
 646 009e 1E24     		movs	r4, #30
 647              	.L50:
 648              	.LVL86:
  92:spo2_algorithm.c **** 
 649              		.loc 1 92 0
 650 00a0 3C2C     		cmp	r4, #60
 651 00a2 00DD     		ble	.L51
 652 00a4 3C24     		movs	r4, #60
 653              	.LVL87:
 654              	.L51:
  94:spo2_algorithm.c ****   
 655              		.loc 1 94 0
 656 00a6 0023     		movs	r3, #0
 657 00a8 04E0     		b	.L52
 658              	.LVL88:
 659              	.L53:
  94:spo2_algorithm.c ****   
 660              		.loc 1 94 0 is_stmt 0 discriminator 3
 661 00aa 9900     		lsls	r1, r3, #2
 662 00ac 0020     		movs	r0, #0
 663 00ae 12AA     		add	r2, sp, #72
 664 00b0 8850     		str	r0, [r1, r2]
 665 00b2 0133     		adds	r3, r3, #1
 666              	.LVL89:
 667              	.L52:
  94:spo2_algorithm.c ****   
 668              		.loc 1 94 0 discriminator 1
 669 00b4 0E2B     		cmp	r3, #14
 670 00b6 F8DD     		ble	.L53
  97:spo2_algorithm.c ****   
ARM GAS  C:\Users\joshw\AppData\Local\Temp\ccyVVHcx.s 			page 19


 671              		.loc 1 97 0 is_stmt 1
 672 00b8 0F23     		movs	r3, #15
 673              	.LVL90:
 674 00ba 0293     		str	r3, [sp, #8]
 675 00bc 0B3B     		subs	r3, r3, #11
 676 00be 0193     		str	r3, [sp, #4]
 677 00c0 0094     		str	r4, [sp]
 678 00c2 6033     		adds	r3, r3, #96
 679 00c4 7F4A     		ldr	r2, .L84
 680 00c6 21A9     		add	r1, sp, #132
 681 00c8 12A8     		add	r0, sp, #72
 682 00ca FFF7FEFF 		bl	maxim_find_peaks
 683              	.LVL91:
 100:spo2_algorithm.c ****     for (k = 1; k < n_npks; k++) 
 684              		.loc 1 100 0
 685 00ce 219B     		ldr	r3, [sp, #132]
 686 00d0 012B     		cmp	r3, #1
 687 00d2 0ADC     		bgt	.L79
 688 00d4 21E0     		b	.L83
 689              	.LVL92:
 690              	.L56:
 102:spo2_algorithm.c ****     n_peak_interval_sum = n_peak_interval_sum / (n_npks - 1);
 691              		.loc 1 102 0 discriminator 3
 692 00d6 12A8     		add	r0, sp, #72
 693 00d8 8B00     		lsls	r3, r1, #2
 694 00da 1B58     		ldr	r3, [r3, r0]
 695 00dc 4A1E     		subs	r2, r1, #1
 696 00de 9200     		lsls	r2, r2, #2
 697 00e0 1258     		ldr	r2, [r2, r0]
 698 00e2 9B1A     		subs	r3, r3, r2
 699 00e4 E418     		adds	r4, r4, r3
 700              	.LVL93:
 101:spo2_algorithm.c ****       n_peak_interval_sum += (an_ir_valley_locs[k] - an_ir_valley_locs[k-1]);
 701              		.loc 1 101 0 discriminator 3
 702 00e6 0131     		adds	r1, r1, #1
 703              	.LVL94:
 704 00e8 03E0     		b	.L54
 705              	.LVL95:
 706              	.L79:
 707 00ea 0024     		movs	r4, #0
 708              	.LVL96:
 709 00ec 0121     		movs	r1, #1
 710 00ee AC46     		mov	ip, r5
 711 00f0 1D00     		movs	r5, r3
 712              	.LVL97:
 713              	.L54:
 101:spo2_algorithm.c ****       n_peak_interval_sum += (an_ir_valley_locs[k] - an_ir_valley_locs[k-1]);
 714              		.loc 1 101 0 is_stmt 0 discriminator 1
 715 00f2 A942     		cmp	r1, r5
 716 00f4 EFDB     		blt	.L56
 717 00f6 A846     		mov	r8, r5
 718 00f8 6546     		mov	r5, ip
 103:spo2_algorithm.c ****     *pn_heart_rate = (int32_t)((FreqS * 60) / n_peak_interval_sum);
 719              		.loc 1 103 0 is_stmt 1
 720 00fa 4146     		mov	r1, r8
 721              	.LVL98:
 722 00fc 0139     		subs	r1, r1, #1
ARM GAS  C:\Users\joshw\AppData\Local\Temp\ccyVVHcx.s 			page 20


 723 00fe 2000     		movs	r0, r4
 724 0100 FFF7FEFF 		bl	__aeabi_idiv
 725              	.LVL99:
 726 0104 0100     		movs	r1, r0
 727              	.LVL100:
 104:spo2_algorithm.c ****     *pch_hr_valid = 1;
 728              		.loc 1 104 0
 729 0106 7048     		ldr	r0, .L84+4
 730              	.LVL101:
 731 0108 FFF7FEFF 		bl	__aeabi_idiv
 732              	.LVL102:
 733 010c 2D9B     		ldr	r3, [sp, #180]
 734 010e 1860     		str	r0, [r3]
 105:spo2_algorithm.c ****   }
 735              		.loc 1 105 0
 736 0110 0123     		movs	r3, #1
 737 0112 2E9A     		ldr	r2, [sp, #184]
 738 0114 1370     		strb	r3, [r2]
 739              	.L58:
 740 0116 0022     		movs	r2, #0
 741 0118 0EE0     		b	.L57
 742              	.LVL103:
 743              	.L83:
 108:spo2_algorithm.c ****     *pch_hr_valid = 0;
 744              		.loc 1 108 0
 745 011a 6C4B     		ldr	r3, .L84+8
 746 011c 2D9A     		ldr	r2, [sp, #180]
 747 011e 1360     		str	r3, [r2]
 109:spo2_algorithm.c ****   }
 748              		.loc 1 109 0
 749 0120 0023     		movs	r3, #0
 750 0122 2E9A     		ldr	r2, [sp, #184]
 751 0124 1370     		strb	r3, [r2]
 752 0126 F6E7     		b	.L58
 753              	.LVL104:
 754              	.L59:
 114:spo2_algorithm.c ****     an_y[k] = pun_red_buffer[k]; 
 755              		.loc 1 114 0 discriminator 3
 756 0128 9300     		lsls	r3, r2, #2
 757 012a 6649     		ldr	r1, .L84
 758 012c F058     		ldr	r0, [r6, r3]
 759 012e 5850     		str	r0, [r3, r1]
 115:spo2_algorithm.c ****   }
 760              		.loc 1 115 0 discriminator 3
 761 0130 6749     		ldr	r1, .L84+12
 762 0132 F858     		ldr	r0, [r7, r3]
 763 0134 5850     		str	r0, [r3, r1]
 113:spo2_algorithm.c ****     an_x[k] = pun_ir_buffer[k]; 
 764              		.loc 1 113 0 discriminator 3
 765 0136 0132     		adds	r2, r2, #1
 766              	.LVL105:
 767              	.L57:
 113:spo2_algorithm.c ****     an_x[k] = pun_ir_buffer[k]; 
 768              		.loc 1 113 0 is_stmt 0 discriminator 1
 769 0138 AA42     		cmp	r2, r5
 770 013a F5DB     		blt	.L59
 119:spo2_algorithm.c ****   
ARM GAS  C:\Users\joshw\AppData\Local\Temp\ccyVVHcx.s 			page 21


 771              		.loc 1 119 0 is_stmt 1
 772 013c 219B     		ldr	r3, [sp, #132]
 773 013e 9946     		mov	r9, r3
 774              	.LVL106:
 125:spo2_algorithm.c ****   
 775              		.loc 1 125 0
 776 0140 0023     		movs	r3, #0
 777              	.LVL107:
 778 0142 04E0     		b	.L60
 779              	.LVL108:
 780              	.L61:
 125:spo2_algorithm.c ****   
 781              		.loc 1 125 0 is_stmt 0 discriminator 3
 782 0144 9900     		lsls	r1, r3, #2
 783 0146 0020     		movs	r0, #0
 784 0148 0DAA     		add	r2, sp, #52
 785 014a 8850     		str	r0, [r1, r2]
 786 014c 0133     		adds	r3, r3, #1
 787              	.LVL109:
 788              	.L60:
 125:spo2_algorithm.c ****   
 789              		.loc 1 125 0 discriminator 1
 790 014e 042B     		cmp	r3, #4
 791 0150 F8DD     		ble	.L61
 792 0152 0023     		movs	r3, #0
 793              	.LVL110:
 794 0154 4846     		mov	r0, r9
 795 0156 0CE0     		b	.L62
 796              	.LVL111:
 797              	.L65:
 128:spo2_algorithm.c ****       *pn_spo2 = -999; // do not use SPO2 since valley loc is out of range
 798              		.loc 1 128 0 is_stmt 1
 799 0158 9A00     		lsls	r2, r3, #2
 800 015a 12A9     		add	r1, sp, #72
 801 015c 5258     		ldr	r2, [r2, r1]
 802 015e 642A     		cmp	r2, #100
 803 0160 06DD     		ble	.L63
 129:spo2_algorithm.c ****       *pch_spo2_valid = 0; 
 804              		.loc 1 129 0
 805 0162 5A4B     		ldr	r3, .L84+8
 806              	.LVL112:
 807 0164 0B9A     		ldr	r2, [sp, #44]
 808 0166 1360     		str	r3, [r2]
 130:spo2_algorithm.c ****       return;
 809              		.loc 1 130 0
 810 0168 0023     		movs	r3, #0
 811 016a 2C9A     		ldr	r2, [sp, #176]
 812 016c 1370     		strb	r3, [r2]
 813 016e A2E0     		b	.L41
 814              	.LVL113:
 815              	.L63:
 127:spo2_algorithm.c ****     if (an_ir_valley_locs[k] > BUFFER_SIZE){
 816              		.loc 1 127 0 discriminator 2
 817 0170 0133     		adds	r3, r3, #1
 818              	.LVL114:
 819              	.L62:
 127:spo2_algorithm.c ****     if (an_ir_valley_locs[k] > BUFFER_SIZE){
ARM GAS  C:\Users\joshw\AppData\Local\Temp\ccyVVHcx.s 			page 22


 820              		.loc 1 127 0 is_stmt 0 discriminator 1
 821 0172 8342     		cmp	r3, r0
 822 0174 F0DB     		blt	.L65
 823 0176 0023     		movs	r3, #0
 824              	.LVL115:
 825 0178 1E00     		movs	r6, r3
 826              	.LVL116:
 827 017a 0027     		movs	r7, #0
 828              	.LVL117:
 829 017c 0A93     		str	r3, [sp, #40]
 830 017e 0790     		str	r0, [sp, #28]
 831 0180 6BE0     		b	.L66
 832              	.LVL118:
 833              	.L72:
 141:spo2_algorithm.c ****       for (i = an_ir_valley_locs[k]; i < an_ir_valley_locs[k+1]; i++){
 834              		.loc 1 141 0 is_stmt 1
 835 0182 5A1C     		adds	r2, r3, #1
 836 0184 1100     		movs	r1, r2
 837 0186 0592     		str	r2, [sp, #20]
 838 0188 12AA     		add	r2, sp, #72
 839 018a 8900     		lsls	r1, r1, #2
 840 018c 8958     		ldr	r1, [r1, r2]
 841 018e 9B00     		lsls	r3, r3, #2
 842              	.LVL119:
 843 0190 9B58     		ldr	r3, [r3, r2]
 844 0192 9946     		mov	r9, r3
 845 0194 CB1A     		subs	r3, r1, r3
 846 0196 0693     		str	r3, [sp, #24]
 847 0198 032B     		cmp	r3, #3
 848 019a 10DC     		bgt	.L80
 849 019c 5CE0     		b	.L68
 850              	.LVL120:
 851              	.L71:
 143:spo2_algorithm.c ****         if (an_y[i] > n_y_dc_max) {n_y_dc_max = an_y[i]; n_y_dc_max_idx = i;}
 852              		.loc 1 143 0
 853 019e 9A00     		lsls	r2, r3, #2
 854 01a0 4848     		ldr	r0, .L84
 855 01a2 1258     		ldr	r2, [r2, r0]
 856 01a4 9442     		cmp	r4, r2
 857 01a6 01DA     		bge	.L69
 858 01a8 1E00     		movs	r6, r3
 859              	.LVL121:
 860 01aa 1400     		movs	r4, r2
 861              	.LVL122:
 862              	.L69:
 144:spo2_algorithm.c ****       }
 863              		.loc 1 144 0
 864 01ac 9A00     		lsls	r2, r3, #2
 865 01ae 4848     		ldr	r0, .L84+12
 866 01b0 1258     		ldr	r2, [r2, r0]
 867 01b2 9542     		cmp	r5, r2
 868 01b4 01DA     		bge	.L70
 869 01b6 1F00     		movs	r7, r3
 870              	.LVL123:
 871 01b8 1500     		movs	r5, r2
 872              	.LVL124:
 873              	.L70:
ARM GAS  C:\Users\joshw\AppData\Local\Temp\ccyVVHcx.s 			page 23


 142:spo2_algorithm.c ****         if (an_x[i] > n_x_dc_max) {n_x_dc_max = an_x[i]; n_x_dc_max_idx = i;}
 874              		.loc 1 142 0 discriminator 2
 875 01ba 0133     		adds	r3, r3, #1
 876              	.LVL125:
 877 01bc 03E0     		b	.L67
 878              	.LVL126:
 879              	.L80:
 880 01be 4B46     		mov	r3, r9
 881 01c0 FF24     		movs	r4, #255
 882 01c2 2406     		lsls	r4, r4, #24
 883 01c4 2500     		movs	r5, r4
 884              	.LVL127:
 885              	.L67:
 142:spo2_algorithm.c ****         if (an_x[i] > n_x_dc_max) {n_x_dc_max = an_x[i]; n_x_dc_max_idx = i;}
 886              		.loc 1 142 0 is_stmt 0 discriminator 1
 887 01c6 8B42     		cmp	r3, r1
 888 01c8 E9DB     		blt	.L71
 147:spo2_algorithm.c ****       n_y_ac = an_y[an_ir_valley_locs[k]] + n_y_ac / (an_ir_valley_locs[k+1] - an_ir_valley_locs[k]
 889              		.loc 1 147 0 is_stmt 1
 890 01ca 414B     		ldr	r3, .L84+12
 891              	.LVL128:
 892 01cc 9A46     		mov	r10, r3
 893 01ce 8B00     		lsls	r3, r1, #2
 894 01d0 9846     		mov	r8, r3
 895 01d2 4B46     		mov	r3, r9
 896 01d4 9B00     		lsls	r3, r3, #2
 897 01d6 5246     		mov	r2, r10
 898 01d8 0993     		str	r3, [sp, #36]
 899 01da 9A58     		ldr	r2, [r3, r2]
 900 01dc 9346     		mov	fp, r2
 901 01de 5246     		mov	r2, r10
 902 01e0 4146     		mov	r1, r8
 903 01e2 8A58     		ldr	r2, [r1, r2]
 904 01e4 5946     		mov	r1, fp
 905 01e6 501A     		subs	r0, r2, r1
 906 01e8 4A46     		mov	r2, r9
 907 01ea BB1A     		subs	r3, r7, r2
 908 01ec 5843     		muls	r0, r3
 909              	.LVL129:
 148:spo2_algorithm.c ****       n_y_ac = an_y[n_y_dc_max_idx] - n_y_ac; // subtracting linear DC components from raw 
 910              		.loc 1 148 0
 911 01ee 0699     		ldr	r1, [sp, #24]
 912 01f0 FFF7FEFF 		bl	__aeabi_idiv
 913              	.LVL130:
 914 01f4 5844     		add	r0, r0, fp
 915              	.LVL131:
 149:spo2_algorithm.c ****       
 916              		.loc 1 149 0
 917 01f6 BA00     		lsls	r2, r7, #2
 918 01f8 9346     		mov	fp, r2
 919 01fa 5246     		mov	r2, r10
 920 01fc 5946     		mov	r1, fp
 921 01fe 8B58     		ldr	r3, [r1, r2]
 922 0200 1A1A     		subs	r2, r3, r0
 923 0202 0892     		str	r2, [sp, #32]
 924              	.LVL132:
 151:spo2_algorithm.c ****       n_x_ac = an_x[an_ir_valley_locs[k]] + n_x_ac / (an_ir_valley_locs[k+1] - an_ir_valley_locs[k]
ARM GAS  C:\Users\joshw\AppData\Local\Temp\ccyVVHcx.s 			page 24


 925              		.loc 1 151 0
 926 0204 2F48     		ldr	r0, .L84
 927 0206 8246     		mov	r10, r0
 928 0208 4146     		mov	r1, r8
 929 020a 0858     		ldr	r0, [r1, r0]
 930 020c 5146     		mov	r1, r10
 931 020e 099B     		ldr	r3, [sp, #36]
 932 0210 5B58     		ldr	r3, [r3, r1]
 933 0212 9846     		mov	r8, r3
 934 0214 C01A     		subs	r0, r0, r3
 935 0216 4B46     		mov	r3, r9
 936 0218 F31A     		subs	r3, r6, r3
 937 021a 5843     		muls	r0, r3
 938              	.LVL133:
 152:spo2_algorithm.c ****       n_x_ac = an_x[n_y_dc_max_idx] - n_x_ac; // subtracting linear DC components from raw 
 939              		.loc 1 152 0
 940 021c 0699     		ldr	r1, [sp, #24]
 941 021e FFF7FEFF 		bl	__aeabi_idiv
 942              	.LVL134:
 943 0222 4044     		add	r0, r0, r8
 944              	.LVL135:
 153:spo2_algorithm.c ****       
 945              		.loc 1 153 0
 946 0224 5346     		mov	r3, r10
 947 0226 5946     		mov	r1, fp
 948 0228 CB58     		ldr	r3, [r1, r3]
 949 022a 191A     		subs	r1, r3, r0
 950              	.LVL136:
 155:spo2_algorithm.c ****       n_denom = (n_x_ac * n_y_dc_max) >> 7;
 951              		.loc 1 155 0
 952 022c 089A     		ldr	r2, [sp, #32]
 953 022e 5443     		muls	r4, r2
 954              	.LVL137:
 955 0230 E411     		asrs	r4, r4, #7
 956              	.LVL138:
 156:spo2_algorithm.c ****       
 957              		.loc 1 156 0
 958 0232 4D43     		muls	r5, r1
 959              	.LVL139:
 960 0234 E911     		asrs	r1, r5, #7
 961              	.LVL140:
 158:spo2_algorithm.c ****       {   
 962              		.loc 1 158 0
 963 0236 0029     		cmp	r1, #0
 964 0238 0EDD     		ble	.L68
 158:spo2_algorithm.c ****       {   
 965              		.loc 1 158 0 is_stmt 0 discriminator 1
 966 023a 0A9D     		ldr	r5, [sp, #40]
 967 023c 042D     		cmp	r5, #4
 968 023e 0BDC     		bgt	.L68
 158:spo2_algorithm.c ****       {   
 969              		.loc 1 158 0 discriminator 2
 970 0240 002C     		cmp	r4, #0
 971 0242 09D0     		beq	.L68
 160:spo2_algorithm.c ****         n_i_ratio_count++;
 972              		.loc 1 160 0 is_stmt 1
 973 0244 6420     		movs	r0, #100
ARM GAS  C:\Users\joshw\AppData\Local\Temp\ccyVVHcx.s 			page 25


 974              	.LVL141:
 975 0246 6043     		muls	r0, r4
 976 0248 FFF7FEFF 		bl	__aeabi_idiv
 977              	.LVL142:
 978 024c AA00     		lsls	r2, r5, #2
 979 024e 0DAB     		add	r3, sp, #52
 980 0250 D050     		str	r0, [r2, r3]
 161:spo2_algorithm.c ****       }
 981              		.loc 1 161 0
 982 0252 2B00     		movs	r3, r5
 983 0254 0133     		adds	r3, r3, #1
 984 0256 0A93     		str	r3, [sp, #40]
 985              	.LVL143:
 986              	.L68:
 987 0258 059B     		ldr	r3, [sp, #20]
 988              	.LVL144:
 989              	.L66:
 137:spo2_algorithm.c ****     n_y_dc_max = -16777216; 
 990              		.loc 1 137 0 discriminator 1
 991 025a 079A     		ldr	r2, [sp, #28]
 992 025c 013A     		subs	r2, r2, #1
 993 025e 9342     		cmp	r3, r2
 994 0260 8FDB     		blt	.L72
 167:spo2_algorithm.c ****   n_middle_idx = n_i_ratio_count / 2;
 995              		.loc 1 167 0
 996 0262 0A9C     		ldr	r4, [sp, #40]
 997 0264 2100     		movs	r1, r4
 998 0266 0DA8     		add	r0, sp, #52
 999 0268 FFF7FEFF 		bl	maxim_sort_ascend
 1000              	.LVL145:
 168:spo2_algorithm.c **** 
 1001              		.loc 1 168 0
 1002 026c E30F     		lsrs	r3, r4, #31
 1003 026e A446     		mov	ip, r4
 1004 0270 6344     		add	r3, r3, ip
 1005 0272 5B10     		asrs	r3, r3, #1
 1006              	.LVL146:
 170:spo2_algorithm.c ****     n_ratio_average = (an_ratio[n_middle_idx-1] + an_ratio[n_middle_idx]) / 2; // use median
 1007              		.loc 1 170 0
 1008 0274 012B     		cmp	r3, #1
 1009 0276 0ADD     		ble	.L73
 171:spo2_algorithm.c ****   else
 1010              		.loc 1 171 0
 1011 0278 5A1E     		subs	r2, r3, #1
 1012 027a 0DA9     		add	r1, sp, #52
 1013 027c 9200     		lsls	r2, r2, #2
 1014 027e 5258     		ldr	r2, [r2, r1]
 1015 0280 9B00     		lsls	r3, r3, #2
 1016              	.LVL147:
 1017 0282 5B58     		ldr	r3, [r3, r1]
 1018 0284 D318     		adds	r3, r2, r3
 1019 0286 DA0F     		lsrs	r2, r3, #31
 1020 0288 D318     		adds	r3, r2, r3
 1021 028a 5B10     		asrs	r3, r3, #1
 1022              	.LVL148:
 1023 028c 02E0     		b	.L74
 1024              	.LVL149:
ARM GAS  C:\Users\joshw\AppData\Local\Temp\ccyVVHcx.s 			page 26


 1025              	.L73:
 173:spo2_algorithm.c **** 
 1026              		.loc 1 173 0
 1027 028e 9B00     		lsls	r3, r3, #2
 1028              	.LVL150:
 1029 0290 0DAA     		add	r2, sp, #52
 1030 0292 9B58     		ldr	r3, [r3, r2]
 1031              	.LVL151:
 1032              	.L74:
 175:spo2_algorithm.c ****     n_spo2_calc = uch_spo2_table[n_ratio_average];
 1033              		.loc 1 175 0
 1034 0294 DA1E     		subs	r2, r3, #3
 1035 0296 B42A     		cmp	r2, #180
 1036 0298 07D8     		bhi	.L75
 176:spo2_algorithm.c ****     *pn_spo2 = n_spo2_calc;
 1037              		.loc 1 176 0
 1038 029a 0E4A     		ldr	r2, .L84+16
 1039 029c D35C     		ldrb	r3, [r2, r3]
 1040              	.LVL152:
 177:spo2_algorithm.c ****     *pch_spo2_valid = 1; // float_SPO2 = -45.060*n_ratio_average*n_ratio_average/10000 + 30.354*n_r
 1041              		.loc 1 177 0
 1042 029e 0B9A     		ldr	r2, [sp, #44]
 1043 02a0 1360     		str	r3, [r2]
 178:spo2_algorithm.c ****   }
 1044              		.loc 1 178 0
 1045 02a2 0123     		movs	r3, #1
 1046              	.LVL153:
 1047 02a4 2C9A     		ldr	r2, [sp, #176]
 1048              	.LVL154:
 1049 02a6 1370     		strb	r3, [r2]
 1050              	.LVL155:
 1051 02a8 05E0     		b	.L41
 1052              	.LVL156:
 1053              	.L75:
 181:spo2_algorithm.c ****     *pch_spo2_valid = 0; 
 1054              		.loc 1 181 0
 1055 02aa 084B     		ldr	r3, .L84+8
 1056              	.LVL157:
 1057 02ac 0B9A     		ldr	r2, [sp, #44]
 1058              	.LVL158:
 1059 02ae 1360     		str	r3, [r2]
 182:spo2_algorithm.c ****   }
 1060              		.loc 1 182 0
 1061 02b0 0023     		movs	r3, #0
 1062 02b2 2C9A     		ldr	r2, [sp, #176]
 1063 02b4 1370     		strb	r3, [r2]
 1064              	.LVL159:
 1065              	.L41:
 184:spo2_algorithm.c **** 
 1066              		.loc 1 184 0
 1067 02b6 23B0     		add	sp, sp, #140
 1068              		@ sp needed
 1069 02b8 3CBC     		pop	{r2, r3, r4, r5}
 1070 02ba 9046     		mov	r8, r2
 1071 02bc 9946     		mov	r9, r3
 1072 02be A246     		mov	r10, r4
 1073 02c0 AB46     		mov	fp, r5
ARM GAS  C:\Users\joshw\AppData\Local\Temp\ccyVVHcx.s 			page 27


 1074 02c2 F0BD     		pop	{r4, r5, r6, r7, pc}
 1075              	.L85:
 1076              		.align	2
 1077              	.L84:
 1078 02c4 00000000 		.word	an_x
 1079 02c8 DC050000 		.word	1500
 1080 02cc 19FCFFFF 		.word	-999
 1081 02d0 00000000 		.word	an_y
 1082 02d4 00000000 		.word	.LANCHOR0
 1083              		.cfi_endproc
 1084              	.LFE32:
 1085              		.size	maxim_heart_rate_and_oxygen_saturation, .-maxim_heart_rate_and_oxygen_saturation
 1086              		.global	uch_spo2_table
 1087              		.comm	an_y,400,4
 1088              		.comm	an_x,400,4
 1089              		.section	.rodata
 1090              		.align	2
 1091              		.set	.LANCHOR0,. + 0
 1092              		.type	uch_spo2_table, %object
 1093              		.size	uch_spo2_table, 184
 1094              	uch_spo2_table:
 1095 0000 5F       		.byte	95
 1096 0001 5F       		.byte	95
 1097 0002 5F       		.byte	95
 1098 0003 60       		.byte	96
 1099 0004 60       		.byte	96
 1100 0005 60       		.byte	96
 1101 0006 61       		.byte	97
 1102 0007 61       		.byte	97
 1103 0008 61       		.byte	97
 1104 0009 61       		.byte	97
 1105 000a 61       		.byte	97
 1106 000b 62       		.byte	98
 1107 000c 62       		.byte	98
 1108 000d 62       		.byte	98
 1109 000e 62       		.byte	98
 1110 000f 62       		.byte	98
 1111 0010 63       		.byte	99
 1112 0011 63       		.byte	99
 1113 0012 63       		.byte	99
 1114 0013 63       		.byte	99
 1115 0014 63       		.byte	99
 1116 0015 63       		.byte	99
 1117 0016 63       		.byte	99
 1118 0017 63       		.byte	99
 1119 0018 64       		.byte	100
 1120 0019 64       		.byte	100
 1121 001a 64       		.byte	100
 1122 001b 64       		.byte	100
 1123 001c 64       		.byte	100
 1124 001d 64       		.byte	100
 1125 001e 64       		.byte	100
 1126 001f 64       		.byte	100
 1127 0020 64       		.byte	100
 1128 0021 64       		.byte	100
 1129 0022 64       		.byte	100
 1130 0023 64       		.byte	100
ARM GAS  C:\Users\joshw\AppData\Local\Temp\ccyVVHcx.s 			page 28


 1131 0024 64       		.byte	100
 1132 0025 64       		.byte	100
 1133 0026 64       		.byte	100
 1134 0027 64       		.byte	100
 1135 0028 64       		.byte	100
 1136 0029 64       		.byte	100
 1137 002a 64       		.byte	100
 1138 002b 64       		.byte	100
 1139 002c 63       		.byte	99
 1140 002d 63       		.byte	99
 1141 002e 63       		.byte	99
 1142 002f 63       		.byte	99
 1143 0030 63       		.byte	99
 1144 0031 63       		.byte	99
 1145 0032 63       		.byte	99
 1146 0033 63       		.byte	99
 1147 0034 62       		.byte	98
 1148 0035 62       		.byte	98
 1149 0036 62       		.byte	98
 1150 0037 62       		.byte	98
 1151 0038 62       		.byte	98
 1152 0039 62       		.byte	98
 1153 003a 61       		.byte	97
 1154 003b 61       		.byte	97
 1155 003c 61       		.byte	97
 1156 003d 61       		.byte	97
 1157 003e 60       		.byte	96
 1158 003f 60       		.byte	96
 1159 0040 60       		.byte	96
 1160 0041 60       		.byte	96
 1161 0042 5F       		.byte	95
 1162 0043 5F       		.byte	95
 1163 0044 5F       		.byte	95
 1164 0045 5E       		.byte	94
 1165 0046 5E       		.byte	94
 1166 0047 5E       		.byte	94
 1167 0048 5D       		.byte	93
 1168 0049 5D       		.byte	93
 1169 004a 5D       		.byte	93
 1170 004b 5C       		.byte	92
 1171 004c 5C       		.byte	92
 1172 004d 5C       		.byte	92
 1173 004e 5B       		.byte	91
 1174 004f 5B       		.byte	91
 1175 0050 5A       		.byte	90
 1176 0051 5A       		.byte	90
 1177 0052 59       		.byte	89
 1178 0053 59       		.byte	89
 1179 0054 59       		.byte	89
 1180 0055 58       		.byte	88
 1181 0056 58       		.byte	88
 1182 0057 57       		.byte	87
 1183 0058 57       		.byte	87
 1184 0059 56       		.byte	86
 1185 005a 56       		.byte	86
 1186 005b 55       		.byte	85
 1187 005c 55       		.byte	85
ARM GAS  C:\Users\joshw\AppData\Local\Temp\ccyVVHcx.s 			page 29


 1188 005d 54       		.byte	84
 1189 005e 54       		.byte	84
 1190 005f 53       		.byte	83
 1191 0060 52       		.byte	82
 1192 0061 52       		.byte	82
 1193 0062 51       		.byte	81
 1194 0063 51       		.byte	81
 1195 0064 50       		.byte	80
 1196 0065 50       		.byte	80
 1197 0066 4F       		.byte	79
 1198 0067 4E       		.byte	78
 1199 0068 4E       		.byte	78
 1200 0069 4D       		.byte	77
 1201 006a 4C       		.byte	76
 1202 006b 4C       		.byte	76
 1203 006c 4B       		.byte	75
 1204 006d 4A       		.byte	74
 1205 006e 4A       		.byte	74
 1206 006f 49       		.byte	73
 1207 0070 48       		.byte	72
 1208 0071 48       		.byte	72
 1209 0072 47       		.byte	71
 1210 0073 46       		.byte	70
 1211 0074 45       		.byte	69
 1212 0075 45       		.byte	69
 1213 0076 44       		.byte	68
 1214 0077 43       		.byte	67
 1215 0078 42       		.byte	66
 1216 0079 42       		.byte	66
 1217 007a 41       		.byte	65
 1218 007b 40       		.byte	64
 1219 007c 3F       		.byte	63
 1220 007d 3E       		.byte	62
 1221 007e 3E       		.byte	62
 1222 007f 3D       		.byte	61
 1223 0080 3C       		.byte	60
 1224 0081 3B       		.byte	59
 1225 0082 3A       		.byte	58
 1226 0083 39       		.byte	57
 1227 0084 38       		.byte	56
 1228 0085 38       		.byte	56
 1229 0086 37       		.byte	55
 1230 0087 36       		.byte	54
 1231 0088 35       		.byte	53
 1232 0089 34       		.byte	52
 1233 008a 33       		.byte	51
 1234 008b 32       		.byte	50
 1235 008c 31       		.byte	49
 1236 008d 30       		.byte	48
 1237 008e 2F       		.byte	47
 1238 008f 2E       		.byte	46
 1239 0090 2D       		.byte	45
 1240 0091 2C       		.byte	44
 1241 0092 2B       		.byte	43
 1242 0093 2A       		.byte	42
 1243 0094 29       		.byte	41
 1244 0095 28       		.byte	40
ARM GAS  C:\Users\joshw\AppData\Local\Temp\ccyVVHcx.s 			page 30


 1245 0096 27       		.byte	39
 1246 0097 26       		.byte	38
 1247 0098 25       		.byte	37
 1248 0099 24       		.byte	36
 1249 009a 23       		.byte	35
 1250 009b 22       		.byte	34
 1251 009c 21       		.byte	33
 1252 009d 1F       		.byte	31
 1253 009e 1E       		.byte	30
 1254 009f 1D       		.byte	29
 1255 00a0 1C       		.byte	28
 1256 00a1 1B       		.byte	27
 1257 00a2 1A       		.byte	26
 1258 00a3 19       		.byte	25
 1259 00a4 17       		.byte	23
 1260 00a5 16       		.byte	22
 1261 00a6 15       		.byte	21
 1262 00a7 14       		.byte	20
 1263 00a8 13       		.byte	19
 1264 00a9 11       		.byte	17
 1265 00aa 10       		.byte	16
 1266 00ab 0F       		.byte	15
 1267 00ac 0E       		.byte	14
 1268 00ad 0C       		.byte	12
 1269 00ae 0B       		.byte	11
 1270 00af 0A       		.byte	10
 1271 00b0 09       		.byte	9
 1272 00b1 07       		.byte	7
 1273 00b2 06       		.byte	6
 1274 00b3 05       		.byte	5
 1275 00b4 03       		.byte	3
 1276 00b5 02       		.byte	2
 1277 00b6 01       		.byte	1
 1278 00b7 00       		.space	1
 1279              		.text
 1280              	.Letext0:
 1281              		.file 2 "c:\\program files (x86)\\cypress\\psoc creator\\4.4\\psoc creator\\import\\gnu\\arm\\5.4.
 1282              		.file 3 "c:\\program files (x86)\\cypress\\psoc creator\\4.4\\psoc creator\\import\\gnu\\arm\\5.4.