ARM GAS  C:\Users\joshw\AppData\Local\Temp\ccN7PGDU.s 			page 1


   1              		.syntax unified
   2              		.cpu cortex-m0
   3              		.fpu softvfp
   4              		.eabi_attribute 20, 1
   5              		.eabi_attribute 21, 1
   6              		.eabi_attribute 23, 3
   7              		.eabi_attribute 24, 1
   8              		.eabi_attribute 25, 1
   9              		.eabi_attribute 26, 1
  10              		.eabi_attribute 30, 1
  11              		.eabi_attribute 34, 0
  12              		.eabi_attribute 18, 4
  13              		.thumb
  14              		.syntax unified
  15              		.file	"ssd1306_driver.c"
  16              		.text
  17              	.Ltext0:
  18              		.cfi_sections	.debug_frame
  19              		.section	.text.SSD1306_SendCommand,"ax",%progbits
  20              		.align	2
  21              		.global	SSD1306_SendCommand
  22              		.code	16
  23              		.thumb_func
  24              		.type	SSD1306_SendCommand, %function
  25              	SSD1306_SendCommand:
  26              	.LFB33:
  27              		.file 1 "ssd1306_driver.c"
   1:ssd1306_driver.c **** /* ========================================
   2:ssd1306_driver.c ****  * 
   3:ssd1306_driver.c ****  * LICENSE INFO:
   4:ssd1306_driver.c ****  *
   5:ssd1306_driver.c ****  * This is documentation for Adafruit's SSD1306 library for monochrome
   6:ssd1306_driver.c ****  * OLED displays: http://www.adafruit.com/category/63_98
   7:ssd1306_driver.c ****  *
   8:ssd1306_driver.c ****  * These displays use I2C or SPI to communicate. I2C requires 2 pins
   9:ssd1306_driver.c ****  * (SCL+SDA) and optionally a RESET pin. SPI requires 4 pins (MOSI, SCK,
  10:ssd1306_driver.c ****  * select, data/command) and optionally a reset pin. Hardware SPI or
  11:ssd1306_driver.c ****  * 'bitbang' software SPI are both supported.
  12:ssd1306_driver.c ****  *
  13:ssd1306_driver.c ****  * Adafruit invests time and resources providing this open source code,
  14:ssd1306_driver.c ****  * please support Adafruit and open-source hardware by purchasing
  15:ssd1306_driver.c ****  * products from Adafruit!
  16:ssd1306_driver.c ****  *
  17:ssd1306_driver.c ****  * @section dependencies Dependencies
  18:ssd1306_driver.c ****  *
  19:ssd1306_driver.c ****  * This library depends on <a
  20:ssd1306_driver.c ****  * href="https://github.com/adafruit/Adafruit-GFX-Library"> Adafruit_GFX</a>
  21:ssd1306_driver.c ****  * being present on your system. Please make sure you have installed the latest
  22:ssd1306_driver.c ****  * version before using this library.
  23:ssd1306_driver.c ****  *
  24:ssd1306_driver.c ****  * @section author Author
  25:ssd1306_driver.c ****  *
  26:ssd1306_driver.c ****  * Written by Limor Fried/Ladyada for Adafruit Industries, with
  27:ssd1306_driver.c ****  * contributions from the open source community.
  28:ssd1306_driver.c ****  *
  29:ssd1306_driver.c ****  * @section license License
  30:ssd1306_driver.c ****  *
ARM GAS  C:\Users\joshw\AppData\Local\Temp\ccN7PGDU.s 			page 2


  31:ssd1306_driver.c ****  * BSD license, all text above, and the splash screen included below,
  32:ssd1306_driver.c ****  * must be included in any redistribution.
  33:ssd1306_driver.c ****  *
  34:ssd1306_driver.c ****  * Modified by Josh Wild
  35:ssd1306_driver.c ****  *
  36:ssd1306_driver.c ****  * ========================================
  37:ssd1306_driver.c **** */
  38:ssd1306_driver.c **** 
  39:ssd1306_driver.c **** /*!
  40:ssd1306_driver.c ****  */
  41:ssd1306_driver.c **** 
  42:ssd1306_driver.c **** #include "project.h"
  43:ssd1306_driver.c **** #include "ssd1306_driver.h"
  44:ssd1306_driver.c **** #include "stdbool.h"
  45:ssd1306_driver.c **** #include "stdio.h"
  46:ssd1306_driver.c **** #include "malloc.h"
  47:ssd1306_driver.c **** 
  48:ssd1306_driver.c **** #define FONT_WIDTH 5
  49:ssd1306_driver.c **** #define FONT_HEIGHT 7
  50:ssd1306_driver.c **** 
  51:ssd1306_driver.c **** const uint8_t font[][5] = {
  52:ssd1306_driver.c ****     // '0' 48 - Index 0
  53:ssd1306_driver.c ****     {0x3E,0x51,0x49,0x45,0x3E},
  54:ssd1306_driver.c ****     // '1' 49 - Index 1
  55:ssd1306_driver.c ****     {0x00,0x42,0x7F,0x40,0x00},
  56:ssd1306_driver.c ****     // '2' 50 - Index 2
  57:ssd1306_driver.c ****     {0x42,0x61,0x51,0x49,0x46},
  58:ssd1306_driver.c ****     // '3' 51 - Index 3
  59:ssd1306_driver.c ****     {0x21,0x41,0x45,0x4B,0x31},
  60:ssd1306_driver.c ****     // '4' 52 - Index 4
  61:ssd1306_driver.c ****     {0x18,0x14,0x12,0x7F,0x10},
  62:ssd1306_driver.c ****     // '5' 53 - Index 5
  63:ssd1306_driver.c ****     {0x27,0x45,0x45,0x45,0x39},
  64:ssd1306_driver.c ****     // '6' 54 - Index 6
  65:ssd1306_driver.c ****     {0x3C,0x4A,0x49,0x49,0x30},
  66:ssd1306_driver.c ****     // '7' 55 - Index 7
  67:ssd1306_driver.c ****     {0x01,0x71,0x09,0x05,0x03},
  68:ssd1306_driver.c ****     // '8' 56 - Index 8
  69:ssd1306_driver.c ****     {0x36,0x49,0x49,0x49,0x36},
  70:ssd1306_driver.c ****     // '9' 57 - Index 9
  71:ssd1306_driver.c ****     {0x06,0x49,0x49,0x29,0x1E},
  72:ssd1306_driver.c **** 
  73:ssd1306_driver.c ****     // 'A' 65 - Index 10
  74:ssd1306_driver.c ****     {0x7E,0x11,0x11,0x11,0x7E},
  75:ssd1306_driver.c ****     // 'B' 66 - Index 11
  76:ssd1306_driver.c ****     {0x7F,0x49,0x49,0x49,0x36},
  77:ssd1306_driver.c ****     // 'C' 67 - Index 12
  78:ssd1306_driver.c ****     {0x3E,0x41,0x41,0x41,0x22},
  79:ssd1306_driver.c ****     // 'D' 68 - Index 13
  80:ssd1306_driver.c ****     {0x7F,0x41,0x41,0x22,0x1C},
  81:ssd1306_driver.c ****     // 'E' 69 - Index 14
  82:ssd1306_driver.c ****     {0x7F,0x49,0x49,0x49,0x41},
  83:ssd1306_driver.c ****     // 'F' 70 - Index 15
  84:ssd1306_driver.c ****     {0x7F,0x09,0x09,0x09,0x01},
  85:ssd1306_driver.c ****     // 'G' 71 - Index 16
  86:ssd1306_driver.c ****     {0x3E,0x41,0x49,0x49,0x7A},
  87:ssd1306_driver.c ****     // 'H' 72 - Index 17
ARM GAS  C:\Users\joshw\AppData\Local\Temp\ccN7PGDU.s 			page 3


  88:ssd1306_driver.c ****     {0x7F,0x08,0x08,0x08,0x7F},
  89:ssd1306_driver.c ****     // 'I' 73 - Index 18
  90:ssd1306_driver.c ****     {0x00,0x41,0x7F,0x41,0x00},
  91:ssd1306_driver.c ****     // 'J' 74 - Index 19
  92:ssd1306_driver.c ****     {0x20,0x40,0x41,0x3F,0x01},
  93:ssd1306_driver.c ****     // 'K' 75 - Index 20
  94:ssd1306_driver.c ****     {0x7F,0x08,0x14,0x22,0x41},
  95:ssd1306_driver.c ****     // 'L' 76 - Index 21
  96:ssd1306_driver.c ****     {0x7F,0x40,0x40,0x40,0x40},
  97:ssd1306_driver.c ****     // 'M' 77 - Index 22
  98:ssd1306_driver.c ****     {0x7F,0x02,0x0C,0x02,0x7F},
  99:ssd1306_driver.c ****     // 'N' 78 - Index 23
 100:ssd1306_driver.c ****     {0x7F,0x04,0x08,0x10,0x7F},
 101:ssd1306_driver.c ****     // 'O' 79 - Index 24
 102:ssd1306_driver.c ****     {0x3E,0x41,0x41,0x41,0x3E},
 103:ssd1306_driver.c ****     // 'P' 80 - Index 25
 104:ssd1306_driver.c ****     {0x7F,0x09,0x09,0x09,0x06},
 105:ssd1306_driver.c ****     // 'Q' 81 - Index 26
 106:ssd1306_driver.c ****     {0x3E,0x41,0x51,0x21,0x5E},
 107:ssd1306_driver.c ****     // 'R' 82 - Index 27
 108:ssd1306_driver.c ****     {0x7F,0x09,0x19,0x29,0x46},
 109:ssd1306_driver.c ****     // 'S' 83 - Index 28
 110:ssd1306_driver.c ****     {0x46,0x49,0x49,0x49,0x31},
 111:ssd1306_driver.c ****     // 'T' 84 - Index 29
 112:ssd1306_driver.c ****     {0x01,0x01,0x7F,0x01,0x01},
 113:ssd1306_driver.c ****     // 'U' 85 - Index 30
 114:ssd1306_driver.c ****     {0x3F,0x40,0x40,0x40,0x3F},
 115:ssd1306_driver.c ****     // 'V' 86 - Index 31
 116:ssd1306_driver.c ****     {0x1F,0x20,0x40,0x20,0x1F},
 117:ssd1306_driver.c ****     // 'W' 87 - Index 32
 118:ssd1306_driver.c ****     {0x7F,0x20,0x18,0x20,0x7F},
 119:ssd1306_driver.c ****     // 'X' 88 - Index 33
 120:ssd1306_driver.c ****     {0x63,0x14,0x08,0x14,0x63},
 121:ssd1306_driver.c ****     // 'Y' 89 - Index 34
 122:ssd1306_driver.c ****     {0x03,0x04,0x78,0x04,0x03},
 123:ssd1306_driver.c ****     // 'Z' 90 - Index 35
 124:ssd1306_driver.c ****     {0x61,0x51,0x49,0x45,0x43},
 125:ssd1306_driver.c **** 
 126:ssd1306_driver.c ****     // 'a' 97 - Index 36
 127:ssd1306_driver.c ****     {0x20,0x54,0x54,0x54,0x78},
 128:ssd1306_driver.c ****     // 'b' 98 - Index 37
 129:ssd1306_driver.c ****     {0x7F,0x48,0x44,0x44,0x38},
 130:ssd1306_driver.c ****     // 'c' 99 - Index 38
 131:ssd1306_driver.c ****     {0x38,0x44,0x44,0x44,0x20},
 132:ssd1306_driver.c ****     // 'd' 100 - Index 39
 133:ssd1306_driver.c ****     {0x38,0x44,0x44,0x48,0x7F},
 134:ssd1306_driver.c ****     // 'e' 101 - Index 40
 135:ssd1306_driver.c ****     {0x38,0x54,0x54,0x54,0x18},
 136:ssd1306_driver.c ****     // 'f' 102 - Index 41
 137:ssd1306_driver.c ****     {0x08,0x7E,0x09,0x01,0x02},
 138:ssd1306_driver.c ****     // 'g' 103 - Index 42
 139:ssd1306_driver.c ****     {0x0C,0x52,0x52,0x52,0x3E},
 140:ssd1306_driver.c ****     // 'h' 104 - Index 43
 141:ssd1306_driver.c ****     {0x7F,0x08,0x04,0x04,0x78},
 142:ssd1306_driver.c ****     // 'i' 105 - Index 44
 143:ssd1306_driver.c ****     {0x00,0x44,0x7D,0x40,0x00},
 144:ssd1306_driver.c ****     // 'j' 106 - Index 45
ARM GAS  C:\Users\joshw\AppData\Local\Temp\ccN7PGDU.s 			page 4


 145:ssd1306_driver.c ****     {0x20,0x40,0x44,0x3D,0x00},
 146:ssd1306_driver.c ****     // 'k' 107 - Index 46
 147:ssd1306_driver.c ****     {0x7F,0x10,0x28,0x44,0x00},
 148:ssd1306_driver.c ****     // 'l' 108 - Index 47
 149:ssd1306_driver.c ****     {0x00,0x41,0x7F,0x40,0x00},
 150:ssd1306_driver.c ****     // 'm' 109 - Index 48
 151:ssd1306_driver.c ****     {0x7C,0x04,0x18,0x04,0x78},
 152:ssd1306_driver.c ****     // 'n' 110 - Index 49
 153:ssd1306_driver.c ****     {0x7C,0x08,0x04,0x04,0x78},
 154:ssd1306_driver.c ****     // 'o' 111 - Index 50
 155:ssd1306_driver.c ****     {0x38,0x44,0x44,0x44,0x38},
 156:ssd1306_driver.c ****     // 'p' 112 - Index 51
 157:ssd1306_driver.c ****     {0x7C,0x14,0x14,0x14,0x08},
 158:ssd1306_driver.c ****     // 'q' 113 - Index 52
 159:ssd1306_driver.c ****     {0x08,0x14,0x14,0x18,0x7C},
 160:ssd1306_driver.c ****     // 'r' 114 - Index 53
 161:ssd1306_driver.c ****     {0x7C,0x08,0x04,0x04,0x08},
 162:ssd1306_driver.c ****     // 's' 115 - Index 54
 163:ssd1306_driver.c ****     {0x48,0x54,0x54,0x54,0x20},
 164:ssd1306_driver.c ****     // 't' 116 - Index 55
 165:ssd1306_driver.c ****     {0x04,0x3F,0x44,0x40,0x20},
 166:ssd1306_driver.c ****     // 'u' 117 - Index 56
 167:ssd1306_driver.c ****     {0x3C,0x40,0x40,0x20,0x7C},
 168:ssd1306_driver.c ****     // 'v' 118 - Index 57
 169:ssd1306_driver.c ****     {0x1C,0x20,0x40,0x20,0x1C},
 170:ssd1306_driver.c ****     // 'w' 119 - Index 58
 171:ssd1306_driver.c ****     {0x3C,0x40,0x30,0x40,0x3C},
 172:ssd1306_driver.c ****     // 'x' 120 - Index 59
 173:ssd1306_driver.c ****     {0x44,0x28,0x10,0x28,0x44},
 174:ssd1306_driver.c ****     // 'y' 121 - Index 60
 175:ssd1306_driver.c ****     {0x0C,0x50,0x50,0x50,0x3C},
 176:ssd1306_driver.c ****     // 'z' 122 - Index 61
 177:ssd1306_driver.c ****     {0x44,0x64,0x54,0x4C,0x44},
 178:ssd1306_driver.c **** 
 179:ssd1306_driver.c ****     // ' ' (space) 32 - Index 62
 180:ssd1306_driver.c ****     {0x00,0x00,0x00,0x00,0x00},
 181:ssd1306_driver.c ****     // '!' 33 - Index 63
 182:ssd1306_driver.c ****     {0x00,0x00,0x5F,0x00,0x00},
 183:ssd1306_driver.c ****     // '.' 46 - Index 64
 184:ssd1306_driver.c ****     {0x00,0x60,0x60,0x00,0x00},
 185:ssd1306_driver.c ****     // ',' 44 - Index 65
 186:ssd1306_driver.c ****     {0x00,0x80,0x60,0x00,0x00},
 187:ssd1306_driver.c ****     // ':' 58 - Index 66
 188:ssd1306_driver.c ****     {0x00,0x36,0x36,0x00,0x00},
 189:ssd1306_driver.c ****     // ';' 59 - Index 67
 190:ssd1306_driver.c ****     {0x00,0x80,0x36,0x36,0x00},
 191:ssd1306_driver.c ****     // '?' 63 - Index 68
 192:ssd1306_driver.c ****     {0x02,0x01,0x51,0x09,0x06},
 193:ssd1306_driver.c ****     // '-' 45 - Index 69
 194:ssd1306_driver.c ****     {0x08,0x08,0x08,0x08,0x08},
 195:ssd1306_driver.c ****     // '_' 95 - Index 70
 196:ssd1306_driver.c ****     {0x80,0x80,0x80,0x80,0x80},
 197:ssd1306_driver.c ****     // '/' 47 - Index 71
 198:ssd1306_driver.c ****     {0x60,0x10,0x08,0x04,0x03},
 199:ssd1306_driver.c ****     // '+' 43 - Index 72
 200:ssd1306_driver.c ****     {0x08,0x08,0x3E,0x08,0x08},
 201:ssd1306_driver.c ****     // '=' 61 - Index 73
ARM GAS  C:\Users\joshw\AppData\Local\Temp\ccN7PGDU.s 			page 5


 202:ssd1306_driver.c ****     {0x14,0x14,0x14,0x14,0x14},
 203:ssd1306_driver.c ****     // '*' 42 - Index 74
 204:ssd1306_driver.c ****     {0x14,0x08,0x3E,0x08,0x14},
 205:ssd1306_driver.c ****     // '%' 37 - Index 75
 206:ssd1306_driver.c ****     {0x62,0x64,0x08,0x13,0x23},
 207:ssd1306_driver.c ****     // '(' 40 - Index 76
 208:ssd1306_driver.c ****     {0x00,0x1C,0x22,0x41,0x00},
 209:ssd1306_driver.c ****     // ')' 41 - Index 77
 210:ssd1306_driver.c ****     {0x00,0x41,0x22,0x1C,0x00},
 211:ssd1306_driver.c ****     // '[' 91 - Index 78
 212:ssd1306_driver.c ****     {0x00,0x7F,0x41,0x41,0x00},
 213:ssd1306_driver.c ****     // ']' 93 - Index 79
 214:ssd1306_driver.c ****     {0x00,0x41,0x41,0x7F,0x00},
 215:ssd1306_driver.c ****     // '"' 34 - Index 80
 216:ssd1306_driver.c ****     {0x03,0x00,0x03,0x00,0x00},
 217:ssd1306_driver.c ****     // '\'' 39 - Index 81
 218:ssd1306_driver.c ****     {0x00,0x03,0x00,0x00,0x00},
 219:ssd1306_driver.c ****     // '#' 35 - Index 82
 220:ssd1306_driver.c ****     {0x14,0x7F,0x14,0x7F,0x14},
 221:ssd1306_driver.c ****     // '$' 36 - Index 83
 222:ssd1306_driver.c ****     {0x24,0x2A,0x7F,0x2A,0x12},
 223:ssd1306_driver.c ****     // '&' 38 - Index 84
 224:ssd1306_driver.c ****     {0x36,0x49,0x55,0x22,0x50},
 225:ssd1306_driver.c ****     // '@' 64 - Index 85
 226:ssd1306_driver.c ****     {0x3E,0x41,0x5D,0x55,0x1E},
 227:ssd1306_driver.c **** };
 228:ssd1306_driver.c **** 
 229:ssd1306_driver.c **** uint8_t buffer[SSD1306_WIDTH * (SSD1306_HEIGHT / 8)];  // Display buffer
 230:ssd1306_driver.c **** uint8_t contrast = 0x8F;
 231:ssd1306_driver.c **** 
 232:ssd1306_driver.c **** // SOME DEFINES AND STATIC VARIABLES USED INTERNALLY -----------------------
 233:ssd1306_driver.c **** 
 234:ssd1306_driver.c **** #define pgm_read_byte(addr)                                                    \
 235:ssd1306_driver.c ****   (*(const unsigned char *)(addr)) ///< PROGMEM workaround for non-AVR
 236:ssd1306_driver.c **** 
 237:ssd1306_driver.c **** #define ssd1306_swap(a, b)                                                     \
 238:ssd1306_driver.c ****   (((a) ^= (b)), ((b) ^= (a)), ((a) ^= (b))) ///< No-temp-var swap operation
 239:ssd1306_driver.c **** 
 240:ssd1306_driver.c **** // LOW-LEVEL UTILS ---------------------------------------------------------
 241:ssd1306_driver.c **** 
 242:ssd1306_driver.c **** /*!
 243:ssd1306_driver.c ****     @brief Issue single command to SSD1306 using I2C.
 244:ssd1306_driver.c ****     @param c the command character to send to the display. Refer to ssd1306 data sheet for commands
 245:ssd1306_driver.c ****     @return None (void).
 246:ssd1306_driver.c ****     @note
 247:ssd1306_driver.c **** */
 248:ssd1306_driver.c **** void SSD1306_SendCommand(uint8_t cmd) {
  28              		.loc 1 248 0
  29              		.cfi_startproc
  30              		@ args = 0, pretend = 0, frame = 0
  31              		@ frame_needed = 0, uses_anonymous_args = 0
  32              	.LVL0:
  33 0000 10B5     		push	{r4, lr}
  34              		.cfi_def_cfa_offset 8
  35              		.cfi_offset 4, -8
  36              		.cfi_offset 14, -4
  37 0002 0400     		movs	r4, r0
ARM GAS  C:\Users\joshw\AppData\Local\Temp\ccN7PGDU.s 			page 6


 249:ssd1306_driver.c ****     I2C_I2CMasterSendStart(OLED_I2C_ADDR, 0, TIMEOUT_TIME);
  38              		.loc 1 249 0
  39 0004 0A22     		movs	r2, #10
  40 0006 0021     		movs	r1, #0
  41 0008 3C20     		movs	r0, #60
  42              	.LVL1:
  43 000a FFF7FEFF 		bl	I2C_I2CMasterSendStart
  44              	.LVL2:
 250:ssd1306_driver.c ****     I2C_I2CMasterWriteByte(I2C_COMMAND_BYTE, TIMEOUT_TIME);
  45              		.loc 1 250 0
  46 000e 0A21     		movs	r1, #10
  47 0010 0020     		movs	r0, #0
  48 0012 FFF7FEFF 		bl	I2C_I2CMasterWriteByte
  49              	.LVL3:
 251:ssd1306_driver.c ****     I2C_I2CMasterWriteByte(cmd, TIMEOUT_TIME);
  50              		.loc 1 251 0
  51 0016 0A21     		movs	r1, #10
  52 0018 2000     		movs	r0, r4
  53 001a FFF7FEFF 		bl	I2C_I2CMasterWriteByte
  54              	.LVL4:
 252:ssd1306_driver.c ****     I2C_I2CMasterSendStop(TIMEOUT_TIME);
  55              		.loc 1 252 0
  56 001e 0A20     		movs	r0, #10
  57 0020 FFF7FEFF 		bl	I2C_I2CMasterSendStop
  58              	.LVL5:
 253:ssd1306_driver.c **** }
  59              		.loc 1 253 0
  60              		@ sp needed
  61 0024 10BD     		pop	{r4, pc}
  62              		.cfi_endproc
  63              	.LFE33:
  64              		.size	SSD1306_SendCommand, .-SSD1306_SendCommand
  65 0026 C046     		.section	.text.SSD1306_SendCommandList,"ax",%progbits
  66              		.align	2
  67              		.global	SSD1306_SendCommandList
  68              		.code	16
  69              		.thumb_func
  70              		.type	SSD1306_SendCommandList, %function
  71              	SSD1306_SendCommandList:
  72              	.LFB34:
 254:ssd1306_driver.c **** 
 255:ssd1306_driver.c **** /*!
 256:ssd1306_driver.c ****     @brief Issue list of commands to SSD1306, same rules as above.
 257:ssd1306_driver.c ****     @param c - pointer to list of commands
 258:ssd1306_driver.c ****     @param n - number of commands in the list
 259:ssd1306_driver.c ****     @return None (void).
 260:ssd1306_driver.c ****     @note
 261:ssd1306_driver.c **** */
 262:ssd1306_driver.c **** void SSD1306_SendCommandList(const uint8_t *cmds, uint8_t n) {
  73              		.loc 1 262 0
  74              		.cfi_startproc
  75              		@ args = 0, pretend = 0, frame = 0
  76              		@ frame_needed = 0, uses_anonymous_args = 0
  77              	.LVL6:
  78 0000 70B5     		push	{r4, r5, r6, lr}
  79              		.cfi_def_cfa_offset 16
  80              		.cfi_offset 4, -16
ARM GAS  C:\Users\joshw\AppData\Local\Temp\ccN7PGDU.s 			page 7


  81              		.cfi_offset 5, -12
  82              		.cfi_offset 6, -8
  83              		.cfi_offset 14, -4
  84 0002 0600     		movs	r6, r0
  85 0004 0D00     		movs	r5, r1
 263:ssd1306_driver.c ****     I2C_I2CMasterSendStart(OLED_I2C_ADDR, 0, TIMEOUT_TIME);
  86              		.loc 1 263 0
  87 0006 0A22     		movs	r2, #10
  88 0008 0021     		movs	r1, #0
  89              	.LVL7:
  90 000a 3C20     		movs	r0, #60
  91              	.LVL8:
  92 000c FFF7FEFF 		bl	I2C_I2CMasterSendStart
  93              	.LVL9:
 264:ssd1306_driver.c ****     I2C_I2CMasterWriteByte(I2C_COMMAND_BYTE, TIMEOUT_TIME);
  94              		.loc 1 264 0
  95 0010 0A21     		movs	r1, #10
  96 0012 0020     		movs	r0, #0
  97 0014 FFF7FEFF 		bl	I2C_I2CMasterWriteByte
  98              	.LVL10:
  99              	.LBB2:
 265:ssd1306_driver.c ****     for (uint8_t i = 0; i < n; i ++) {
 100              		.loc 1 265 0
 101 0018 0024     		movs	r4, #0
 102 001a 05E0     		b	.L3
 103              	.LVL11:
 104              	.L4:
 266:ssd1306_driver.c ****         I2C_I2CMasterWriteByte(cmds[i], TIMEOUT_TIME);
 105              		.loc 1 266 0 discriminator 3
 106 001c 305D     		ldrb	r0, [r6, r4]
 107 001e 0A21     		movs	r1, #10
 108 0020 FFF7FEFF 		bl	I2C_I2CMasterWriteByte
 109              	.LVL12:
 265:ssd1306_driver.c ****     for (uint8_t i = 0; i < n; i ++) {
 110              		.loc 1 265 0 discriminator 3
 111 0024 0134     		adds	r4, r4, #1
 112              	.LVL13:
 113 0026 E4B2     		uxtb	r4, r4
 114              	.LVL14:
 115              	.L3:
 265:ssd1306_driver.c ****     for (uint8_t i = 0; i < n; i ++) {
 116              		.loc 1 265 0 is_stmt 0 discriminator 1
 117 0028 AC42     		cmp	r4, r5
 118 002a F7D3     		bcc	.L4
 119              	.LBE2:
 267:ssd1306_driver.c ****     }
 268:ssd1306_driver.c ****     I2C_I2CMasterSendStop(TIMEOUT_TIME);
 120              		.loc 1 268 0 is_stmt 1
 121 002c 0A20     		movs	r0, #10
 122 002e FFF7FEFF 		bl	I2C_I2CMasterSendStop
 123              	.LVL15:
 269:ssd1306_driver.c **** }
 124              		.loc 1 269 0
 125              		@ sp needed
 126              	.LVL16:
 127              	.LVL17:
 128 0032 70BD     		pop	{r4, r5, r6, pc}
ARM GAS  C:\Users\joshw\AppData\Local\Temp\ccN7PGDU.s 			page 8


 129              		.cfi_endproc
 130              	.LFE34:
 131              		.size	SSD1306_SendCommandList, .-SSD1306_SendCommandList
 132              		.section	.text.SSD1306_SendData,"ax",%progbits
 133              		.align	2
 134              		.global	SSD1306_SendData
 135              		.code	16
 136              		.thumb_func
 137              		.type	SSD1306_SendData, %function
 138              	SSD1306_SendData:
 139              	.LFB35:
 270:ssd1306_driver.c **** 
 271:ssd1306_driver.c **** /*!
 272:ssd1306_driver.c ****     @brief Issue array of data to SSD1306, same rules as above.
 273:ssd1306_driver.c ****     @param data - pointer to array of data
 274:ssd1306_driver.c ****     @param len - length of data array
 275:ssd1306_driver.c ****     @return None (void).
 276:ssd1306_driver.c ****     @note
 277:ssd1306_driver.c **** */
 278:ssd1306_driver.c **** void SSD1306_SendData(const uint8_t *data, uint16_t len) {
 140              		.loc 1 278 0
 141              		.cfi_startproc
 142              		@ args = 0, pretend = 0, frame = 0
 143              		@ frame_needed = 0, uses_anonymous_args = 0
 144              	.LVL18:
 145 0000 70B5     		push	{r4, r5, r6, lr}
 146              		.cfi_def_cfa_offset 16
 147              		.cfi_offset 4, -16
 148              		.cfi_offset 5, -12
 149              		.cfi_offset 6, -8
 150              		.cfi_offset 14, -4
 151 0002 0600     		movs	r6, r0
 152 0004 0D00     		movs	r5, r1
 279:ssd1306_driver.c ****     I2C_I2CMasterSendStart(OLED_I2C_ADDR, 0, TIMEOUT_TIME);
 153              		.loc 1 279 0
 154 0006 0A22     		movs	r2, #10
 155 0008 0021     		movs	r1, #0
 156              	.LVL19:
 157 000a 3C20     		movs	r0, #60
 158              	.LVL20:
 159 000c FFF7FEFF 		bl	I2C_I2CMasterSendStart
 160              	.LVL21:
 280:ssd1306_driver.c ****     I2C_I2CMasterWriteByte(I2C_DATA_BYTE, TIMEOUT_TIME);
 161              		.loc 1 280 0
 162 0010 0A21     		movs	r1, #10
 163 0012 4020     		movs	r0, #64
 164 0014 FFF7FEFF 		bl	I2C_I2CMasterWriteByte
 165              	.LVL22:
 166              	.LBB3:
 281:ssd1306_driver.c ****     for (uint16_t i = 0; i < len; i ++) {
 167              		.loc 1 281 0
 168 0018 0024     		movs	r4, #0
 169 001a 05E0     		b	.L6
 170              	.LVL23:
 171              	.L7:
 282:ssd1306_driver.c ****         I2C_I2CMasterWriteByte(data[i], TIMEOUT_TIME);
 172              		.loc 1 282 0 discriminator 3
ARM GAS  C:\Users\joshw\AppData\Local\Temp\ccN7PGDU.s 			page 9


 173 001c 305D     		ldrb	r0, [r6, r4]
 174 001e 0A21     		movs	r1, #10
 175 0020 FFF7FEFF 		bl	I2C_I2CMasterWriteByte
 176              	.LVL24:
 281:ssd1306_driver.c ****     for (uint16_t i = 0; i < len; i ++) {
 177              		.loc 1 281 0 discriminator 3
 178 0024 0134     		adds	r4, r4, #1
 179              	.LVL25:
 180 0026 A4B2     		uxth	r4, r4
 181              	.LVL26:
 182              	.L6:
 281:ssd1306_driver.c ****     for (uint16_t i = 0; i < len; i ++) {
 183              		.loc 1 281 0 is_stmt 0 discriminator 1
 184 0028 AC42     		cmp	r4, r5
 185 002a F7D3     		bcc	.L7
 186              	.LBE3:
 283:ssd1306_driver.c ****     }
 284:ssd1306_driver.c ****     I2C_I2CMasterSendStop(TIMEOUT_TIME);
 187              		.loc 1 284 0 is_stmt 1
 188 002c 0A20     		movs	r0, #10
 189 002e FFF7FEFF 		bl	I2C_I2CMasterSendStop
 190              	.LVL27:
 285:ssd1306_driver.c **** }
 191              		.loc 1 285 0
 192              		@ sp needed
 193              	.LVL28:
 194              	.LVL29:
 195 0032 70BD     		pop	{r4, r5, r6, pc}
 196              		.cfi_endproc
 197              	.LFE35:
 198              		.size	SSD1306_SendData, .-SSD1306_SendData
 199              		.section	.text.clearDisplay,"ax",%progbits
 200              		.align	2
 201              		.global	clearDisplay
 202              		.code	16
 203              		.thumb_func
 204              		.type	clearDisplay, %function
 205              	clearDisplay:
 206              	.LFB36:
 286:ssd1306_driver.c **** 
 287:ssd1306_driver.c **** /*!
 288:ssd1306_driver.c ****     @brief  Clear contents of display buffer (set all pixels to off).
 289:ssd1306_driver.c ****     @return None (void).
 290:ssd1306_driver.c ****     @note   Changes buffer contents only, no immediate effect on display.
 291:ssd1306_driver.c ****             Follow up with a call to display(), or with other graphics
 292:ssd1306_driver.c ****             commands as needed by one's own application.
 293:ssd1306_driver.c **** */
 294:ssd1306_driver.c **** void clearDisplay(void) {
 207              		.loc 1 294 0
 208              		.cfi_startproc
 209              		@ args = 0, pretend = 0, frame = 0
 210              		@ frame_needed = 0, uses_anonymous_args = 0
 211 0000 10B5     		push	{r4, lr}
 212              		.cfi_def_cfa_offset 8
 213              		.cfi_offset 4, -8
 214              		.cfi_offset 14, -4
 295:ssd1306_driver.c ****   memset(buffer, 0, SSD1306_WIDTH * ((SSD1306_HEIGHT + 7) / 8));
ARM GAS  C:\Users\joshw\AppData\Local\Temp\ccN7PGDU.s 			page 10


 215              		.loc 1 295 0
 216 0002 8022     		movs	r2, #128
 217 0004 9200     		lsls	r2, r2, #2
 218 0006 0021     		movs	r1, #0
 219 0008 0148     		ldr	r0, .L9
 220 000a FFF7FEFF 		bl	memset
 221              	.LVL30:
 296:ssd1306_driver.c **** }
 222              		.loc 1 296 0
 223              		@ sp needed
 224 000e 10BD     		pop	{r4, pc}
 225              	.L10:
 226              		.align	2
 227              	.L9:
 228 0010 00000000 		.word	buffer
 229              		.cfi_endproc
 230              	.LFE36:
 231              		.size	clearDisplay, .-clearDisplay
 232              		.section	.text.dim,"ax",%progbits
 233              		.align	2
 234              		.global	dim
 235              		.code	16
 236              		.thumb_func
 237              		.type	dim, %function
 238              	dim:
 239              	.LFB37:
 297:ssd1306_driver.c **** 
 298:ssd1306_driver.c **** /*!
 299:ssd1306_driver.c ****     @brief  Dim the display.
 300:ssd1306_driver.c ****     @param  dim - true to enable lower brightness mode, false for full brightness.
 301:ssd1306_driver.c ****     @return None (void).
 302:ssd1306_driver.c ****     @note   This has an immediate effect on the display, no need to call the display() function -- 
 303:ssd1306_driver.c **** */
 304:ssd1306_driver.c **** void dim(bool dim) {
 240              		.loc 1 304 0
 241              		.cfi_startproc
 242              		@ args = 0, pretend = 0, frame = 0
 243              		@ frame_needed = 0, uses_anonymous_args = 0
 244              	.LVL31:
 245 0000 10B5     		push	{r4, lr}
 246              		.cfi_def_cfa_offset 8
 247              		.cfi_offset 4, -8
 248              		.cfi_offset 14, -4
 249 0002 0400     		movs	r4, r0
 305:ssd1306_driver.c ****   // the range of contrast to too small to be really useful; it is useful to dim the display
 306:ssd1306_driver.c ****   SSD1306_SendCommand(SSD1306_SETCONTRAST);
 250              		.loc 1 306 0
 251 0004 8120     		movs	r0, #129
 252              	.LVL32:
 253 0006 FFF7FEFF 		bl	SSD1306_SendCommand
 254              	.LVL33:
 307:ssd1306_driver.c ****   SSD1306_SendCommand(dim ? 0 : contrast);
 255              		.loc 1 307 0
 256 000a 002C     		cmp	r4, #0
 257 000c 02D1     		bne	.L13
 258              		.loc 1 307 0 is_stmt 0 discriminator 2
 259 000e 034B     		ldr	r3, .L14
ARM GAS  C:\Users\joshw\AppData\Local\Temp\ccN7PGDU.s 			page 11


 260 0010 1878     		ldrb	r0, [r3]
 261 0012 00E0     		b	.L12
 262              	.L13:
 263              		.loc 1 307 0
 264 0014 0020     		movs	r0, #0
 265              	.L12:
 266              		.loc 1 307 0 discriminator 4
 267 0016 FFF7FEFF 		bl	SSD1306_SendCommand
 268              	.LVL34:
 308:ssd1306_driver.c **** }
 269              		.loc 1 308 0 is_stmt 1 discriminator 4
 270              		@ sp needed
 271 001a 10BD     		pop	{r4, pc}
 272              	.L15:
 273              		.align	2
 274              	.L14:
 275 001c 00000000 		.word	.LANCHOR0
 276              		.cfi_endproc
 277              	.LFE37:
 278              		.size	dim, .-dim
 279              		.section	.text.init,"ax",%progbits
 280              		.align	2
 281              		.global	init
 282              		.code	16
 283              		.thumb_func
 284              		.type	init, %function
 285              	init:
 286              	.LFB38:
 309:ssd1306_driver.c **** 
 310:ssd1306_driver.c **** // ALLOCATE & INIT DISPLAY -------------------------------------------------
 311:ssd1306_driver.c **** 
 312:ssd1306_driver.c **** /*!
 313:ssd1306_driver.c ****     @brief  Allocate RAM for image buffer, initialize peripherals and pins.
 314:ssd1306_driver.c ****     @return true on successful allocation/init, false otherwise.
 315:ssd1306_driver.c ****             Well-behaved code should check the return value before
 316:ssd1306_driver.c ****             proceeding.
 317:ssd1306_driver.c ****     @note   MUST call this function before any drawing or updates!
 318:ssd1306_driver.c **** */
 319:ssd1306_driver.c **** bool init(void) {    
 287              		.loc 1 319 0
 288              		.cfi_startproc
 289              		@ args = 0, pretend = 0, frame = 0
 290              		@ frame_needed = 0, uses_anonymous_args = 0
 291 0000 10B5     		push	{r4, lr}
 292              		.cfi_def_cfa_offset 8
 293              		.cfi_offset 4, -8
 294              		.cfi_offset 14, -4
 320:ssd1306_driver.c ****     UART_UartPutString("Starting init\n\r");
 295              		.loc 1 320 0
 296 0002 0C48     		ldr	r0, .L17
 297 0004 FFF7FEFF 		bl	UART_UartPutString
 298              	.LVL35:
 321:ssd1306_driver.c **** 
 322:ssd1306_driver.c ****     clearDisplay();
 299              		.loc 1 322 0
 300 0008 FFF7FEFF 		bl	clearDisplay
 301              	.LVL36:
ARM GAS  C:\Users\joshw\AppData\Local\Temp\ccN7PGDU.s 			page 12


 323:ssd1306_driver.c ****     UART_UartPutString("Cleared Display\n\r");
 302              		.loc 1 323 0
 303 000c 0A48     		ldr	r0, .L17+4
 304 000e FFF7FEFF 		bl	UART_UartPutString
 305              	.LVL37:
 324:ssd1306_driver.c ****     
 325:ssd1306_driver.c ****     I2C_Start();
 306              		.loc 1 325 0
 307 0012 FFF7FEFF 		bl	I2C_Start
 308              	.LVL38:
 326:ssd1306_driver.c ****     CyDelay(1000);
 309              		.loc 1 326 0
 310 0016 FA20     		movs	r0, #250
 311 0018 8000     		lsls	r0, r0, #2
 312 001a FFF7FEFF 		bl	CyDelay
 313              	.LVL39:
 327:ssd1306_driver.c ****     I2C_I2CMasterClearStatus();
 314              		.loc 1 327 0
 315 001e FFF7FEFF 		bl	I2C_I2CMasterClearStatus
 316              	.LVL40:
 328:ssd1306_driver.c ****     
 329:ssd1306_driver.c ****     static const uint8_t init_cmds[] = {
 330:ssd1306_driver.c ****         SSD1306_DISPLAYOFF,           // 0xAE
 331:ssd1306_driver.c ****         SSD1306_SETDISPLAYCLOCKDIV, 0x80, // 0xD5, 0x80
 332:ssd1306_driver.c ****         SSD1306_SETMULTIPLEX, 0x1F,  // 0xA8, 31 (32 rows)
 333:ssd1306_driver.c ****         SSD1306_SETDISPLAYOFFSET, 0x00, // 0xD3, 0 offset
 334:ssd1306_driver.c ****         SSD1306_SETSTARTLINE, // 0x40
 335:ssd1306_driver.c ****         SSD1306_CHARGEPUMP, 0x14,    // 0x8D, enable charge pump
 336:ssd1306_driver.c ****         SSD1306_MEMORYMODE, 0x00,    // 0x20, horizontal addressing
 337:ssd1306_driver.c ****         SSD1306_SEGREMAP | 0x01,     // 0xA1, segment remap
 338:ssd1306_driver.c ****         SSD1306_COMSCANDEC,           // 0xC8, COM scan dec
 339:ssd1306_driver.c ****         SSD1306_SETCOMPINS, 0x02,    // 0xDA, COM pins config
 340:ssd1306_driver.c ****         SSD1306_SETCONTRAST, 0x8F,   // 0x81, contrast
 341:ssd1306_driver.c ****         SSD1306_SETPRECHARGE, 0xF1,  // 0xD9, precharge
 342:ssd1306_driver.c ****         SSD1306_SETVCOMDETECT, 0x40, // 0xDB, VCOM detect
 343:ssd1306_driver.c ****         SSD1306_DISPLAYALLON_RESUME,  // 0xA4
 344:ssd1306_driver.c ****         SSD1306_NORMALDISPLAY,        // 0xA6
 345:ssd1306_driver.c ****         SSD1306_DEACTIVATE_SCROLL,    // 0x2E
 346:ssd1306_driver.c ****         SSD1306_DISPLAYON             // 0xAF
 347:ssd1306_driver.c ****     };
 348:ssd1306_driver.c ****     
 349:ssd1306_driver.c ****     SSD1306_SendCommandList(init_cmds, sizeof(init_cmds));
 317              		.loc 1 349 0
 318 0022 1A21     		movs	r1, #26
 319 0024 0548     		ldr	r0, .L17+8
 320 0026 FFF7FEFF 		bl	SSD1306_SendCommandList
 321              	.LVL41:
 350:ssd1306_driver.c ****     UART_UartPutString("Sent Commands\n\r");
 322              		.loc 1 350 0
 323 002a 0548     		ldr	r0, .L17+12
 324 002c FFF7FEFF 		bl	UART_UartPutString
 325              	.LVL42:
 351:ssd1306_driver.c ****     
 352:ssd1306_driver.c ****     return true; // Success
 353:ssd1306_driver.c **** }
 326              		.loc 1 353 0
 327 0030 0120     		movs	r0, #1
ARM GAS  C:\Users\joshw\AppData\Local\Temp\ccN7PGDU.s 			page 13


 328              		@ sp needed
 329 0032 10BD     		pop	{r4, pc}
 330              	.L18:
 331              		.align	2
 332              	.L17:
 333 0034 00000000 		.word	.LC2
 334 0038 10000000 		.word	.LC4
 335 003c 00010000 		.word	.LANCHOR1
 336 0040 24000000 		.word	.LC7
 337              		.cfi_endproc
 338              	.LFE38:
 339              		.size	init, .-init
 340              		.section	.text.drawPixel,"ax",%progbits
 341              		.align	2
 342              		.global	drawPixel
 343              		.code	16
 344              		.thumb_func
 345              		.type	drawPixel, %function
 346              	drawPixel:
 347              	.LFB39:
 354:ssd1306_driver.c **** 
 355:ssd1306_driver.c **** // DRAWING FUNCTIONS -------------------------------------------------------
 356:ssd1306_driver.c **** 
 357:ssd1306_driver.c **** /*!
 358:ssd1306_driver.c ****     @brief  Set/clear/invert a single pixel. This is also invoked by the
 359:ssd1306_driver.c ****             Adafruit_GFX library in generating many higher-level graphics
 360:ssd1306_driver.c ****             primitives.
 361:ssd1306_driver.c ****     @param  x
 362:ssd1306_driver.c ****             Column of display -- 0 at left to (screen width - 1) at right.
 363:ssd1306_driver.c ****     @param  y
 364:ssd1306_driver.c ****             Row of display -- 0 at top to (screen height -1) at bottom.
 365:ssd1306_driver.c ****     @param  color
 366:ssd1306_driver.c ****             Pixel color, one of: SSD1306_BLACK, SSD1306_WHITE or
 367:ssd1306_driver.c ****             SSD1306_INVERSE.
 368:ssd1306_driver.c ****     @return None (void).
 369:ssd1306_driver.c ****     @note   Changes buffer contents only, no immediate effect on display.
 370:ssd1306_driver.c ****             Follow up with a call to display(), or with other graphics
 371:ssd1306_driver.c ****             commands as needed by one's own application.
 372:ssd1306_driver.c **** */
 373:ssd1306_driver.c **** void drawPixel(int16_t x, int16_t y, uint16_t color) {
 348              		.loc 1 373 0
 349              		.cfi_startproc
 350              		@ args = 0, pretend = 0, frame = 0
 351              		@ frame_needed = 0, uses_anonymous_args = 0
 352              		@ link register save eliminated.
 353              	.LVL43:
 374:ssd1306_driver.c ****     if ((x >= 0) && (x < SSD1306_WIDTH) && (y >= 0) && (y < SSD1306_HEIGHT)) {
 354              		.loc 1 374 0
 355 0000 83B2     		uxth	r3, r0
 356 0002 7F2B     		cmp	r3, #127
 357 0004 39D8     		bhi	.L19
 358              		.loc 1 374 0 is_stmt 0 discriminator 1
 359 0006 0029     		cmp	r1, #0
 360 0008 37DB     		blt	.L19
 361              		.loc 1 374 0 discriminator 2
 362 000a 1F29     		cmp	r1, #31
 363 000c 35DC     		bgt	.L19
ARM GAS  C:\Users\joshw\AppData\Local\Temp\ccN7PGDU.s 			page 14


 375:ssd1306_driver.c ****         // Pixel is in-bounds.    
 376:ssd1306_driver.c ****         switch (color) {
 364              		.loc 1 376 0 is_stmt 1
 365 000e 012A     		cmp	r2, #1
 366 0010 04D0     		beq	.L21
 367 0012 002A     		cmp	r2, #0
 368 0014 12D0     		beq	.L22
 369 0016 022A     		cmp	r2, #2
 370 0018 20D0     		beq	.L23
 371 001a 2EE0     		b	.L19
 372              	.L21:
 377:ssd1306_driver.c ****             case SSD1306_WHITE:
 378:ssd1306_driver.c ****                 buffer[x + (y / 8) * SSD1306_WIDTH] |= (1 << (y & 7));
 373              		.loc 1 378 0
 374 001c CB17     		asrs	r3, r1, #31
 375 001e 0722     		movs	r2, #7
 376              	.LVL44:
 377 0020 1340     		ands	r3, r2
 378 0022 5B18     		adds	r3, r3, r1
 379 0024 DB10     		asrs	r3, r3, #3
 380 0026 DB01     		lsls	r3, r3, #7
 381 0028 1818     		adds	r0, r3, r0
 382              	.LVL45:
 383 002a 0723     		movs	r3, #7
 384 002c 1940     		ands	r1, r3
 385              	.LVL46:
 386 002e 063B     		subs	r3, r3, #6
 387 0030 8B40     		lsls	r3, r3, r1
 388 0032 124A     		ldr	r2, .L24
 389 0034 115C     		ldrb	r1, [r2, r0]
 390 0036 0B43     		orrs	r3, r1
 391 0038 1354     		strb	r3, [r2, r0]
 379:ssd1306_driver.c ****                 break;
 392              		.loc 1 379 0
 393 003a 1EE0     		b	.L19
 394              	.LVL47:
 395              	.L22:
 380:ssd1306_driver.c ****             case SSD1306_BLACK:
 381:ssd1306_driver.c ****                 buffer[x + (y / 8) * SSD1306_WIDTH] &= ~(1 << (y & 7));
 396              		.loc 1 381 0
 397 003c CB17     		asrs	r3, r1, #31
 398 003e 0722     		movs	r2, #7
 399              	.LVL48:
 400 0040 1340     		ands	r3, r2
 401 0042 5B18     		adds	r3, r3, r1
 402 0044 DB10     		asrs	r3, r3, #3
 403 0046 DB01     		lsls	r3, r3, #7
 404 0048 1818     		adds	r0, r3, r0
 405              	.LVL49:
 406 004a 0723     		movs	r3, #7
 407 004c 1940     		ands	r1, r3
 408              	.LVL50:
 409 004e 063A     		subs	r2, r2, #6
 410 0050 8A40     		lsls	r2, r2, r1
 411 0052 0A49     		ldr	r1, .L24
 412 0054 0B5C     		ldrb	r3, [r1, r0]
 413 0056 9343     		bics	r3, r2
ARM GAS  C:\Users\joshw\AppData\Local\Temp\ccN7PGDU.s 			page 15


 414 0058 0B54     		strb	r3, [r1, r0]
 382:ssd1306_driver.c ****                 break;
 415              		.loc 1 382 0
 416 005a 0EE0     		b	.L19
 417              	.LVL51:
 418              	.L23:
 383:ssd1306_driver.c ****             case SSD1306_INVERSE:
 384:ssd1306_driver.c ****                 buffer[x + (y / 8) * SSD1306_WIDTH] ^= (1 << (y & 7));
 419              		.loc 1 384 0
 420 005c CB17     		asrs	r3, r1, #31
 421 005e 0722     		movs	r2, #7
 422              	.LVL52:
 423 0060 1340     		ands	r3, r2
 424 0062 5B18     		adds	r3, r3, r1
 425 0064 DB10     		asrs	r3, r3, #3
 426 0066 DB01     		lsls	r3, r3, #7
 427 0068 1818     		adds	r0, r3, r0
 428              	.LVL53:
 429 006a 0723     		movs	r3, #7
 430 006c 1940     		ands	r1, r3
 431              	.LVL54:
 432 006e 063B     		subs	r3, r3, #6
 433 0070 8B40     		lsls	r3, r3, r1
 434 0072 024A     		ldr	r2, .L24
 435 0074 115C     		ldrb	r1, [r2, r0]
 436 0076 4B40     		eors	r3, r1
 437 0078 1354     		strb	r3, [r2, r0]
 438              	.L19:
 385:ssd1306_driver.c ****                 break;
 386:ssd1306_driver.c ****         }
 387:ssd1306_driver.c ****     }
 388:ssd1306_driver.c **** }
 439              		.loc 1 388 0
 440              		@ sp needed
 441 007a 7047     		bx	lr
 442              	.L25:
 443              		.align	2
 444              	.L24:
 445 007c 00000000 		.word	buffer
 446              		.cfi_endproc
 447              	.LFE39:
 448              		.size	drawPixel, .-drawPixel
 449              		.section	.text.drawFastHLine,"ax",%progbits
 450              		.align	2
 451              		.global	drawFastHLine
 452              		.code	16
 453              		.thumb_func
 454              		.type	drawFastHLine, %function
 455              	drawFastHLine:
 456              	.LFB40:
 389:ssd1306_driver.c **** 
 390:ssd1306_driver.c **** /*!
 391:ssd1306_driver.c ****     @brief  Draw a horizontal line with a width and color. Used by public
 392:ssd1306_driver.c ****    methods drawFastHLine,drawFastVLine
 393:ssd1306_driver.c ****         @param x
 394:ssd1306_driver.c ****                    Leftmost column -- 0 at left to (screen width - 1) at right.
 395:ssd1306_driver.c ****         @param y
ARM GAS  C:\Users\joshw\AppData\Local\Temp\ccN7PGDU.s 			page 16


 396:ssd1306_driver.c ****                    Row of display -- 0 at top to (screen height -1) at bottom.
 397:ssd1306_driver.c ****         @param w
 398:ssd1306_driver.c ****                    Width of line, in pixels.
 399:ssd1306_driver.c ****         @param color
 400:ssd1306_driver.c ****                Line color, one of: SSD1306_BLACK, SSD1306_WHITE or
 401:ssd1306_driver.c ****    SSD1306_INVERSE.
 402:ssd1306_driver.c ****     @return None (void).
 403:ssd1306_driver.c ****     @note   Changes buffer contents only, no immediate effect on display.
 404:ssd1306_driver.c ****             Follow up with a call to display(), or with other graphics
 405:ssd1306_driver.c ****             commands as needed by one's own application.
 406:ssd1306_driver.c **** */
 407:ssd1306_driver.c **** void drawFastHLine(int16_t x, int16_t y, int16_t w, uint16_t color) {
 457              		.loc 1 407 0
 458              		.cfi_startproc
 459              		@ args = 0, pretend = 0, frame = 0
 460              		@ frame_needed = 0, uses_anonymous_args = 0
 461              	.LVL55:
 462 0000 70B5     		push	{r4, r5, r6, lr}
 463              		.cfi_def_cfa_offset 16
 464              		.cfi_offset 4, -16
 465              		.cfi_offset 5, -12
 466              		.cfi_offset 6, -8
 467              		.cfi_offset 14, -4
 408:ssd1306_driver.c ****   if ((y >= 0) && (y < SSD1306_HEIGHT)) { // Y coord in bounds?
 468              		.loc 1 408 0
 469 0002 8CB2     		uxth	r4, r1
 470 0004 1F2C     		cmp	r4, #31
 471 0006 42D8     		bhi	.L26
 409:ssd1306_driver.c ****     if (x < 0) {                  // Clip left
 472              		.loc 1 409 0
 473 0008 0028     		cmp	r0, #0
 474 000a 02DA     		bge	.L28
 410:ssd1306_driver.c ****       w += x;
 475              		.loc 1 410 0
 476 000c 1218     		adds	r2, r2, r0
 477              	.LVL56:
 478 000e 12B2     		sxth	r2, r2
 479              	.LVL57:
 411:ssd1306_driver.c ****       x = 0;
 480              		.loc 1 411 0
 481 0010 0020     		movs	r0, #0
 482              	.LVL58:
 483              	.L28:
 412:ssd1306_driver.c ****     }
 413:ssd1306_driver.c ****     if ((x + w) > SSD1306_WIDTH) { // Clip right
 484              		.loc 1 413 0
 485 0012 0600     		movs	r6, r0
 486 0014 1518     		adds	r5, r2, r0
 487 0016 802D     		cmp	r5, #128
 488 0018 02DD     		ble	.L29
 414:ssd1306_driver.c ****       w = (SSD1306_WIDTH - x);
 489              		.loc 1 414 0
 490 001a 8022     		movs	r2, #128
 491              	.LVL59:
 492 001c 121A     		subs	r2, r2, r0
 493 001e 12B2     		sxth	r2, r2
 494              	.LVL60:
ARM GAS  C:\Users\joshw\AppData\Local\Temp\ccN7PGDU.s 			page 17


 495              	.L29:
 415:ssd1306_driver.c ****     }
 416:ssd1306_driver.c ****     if (w > 0) { // Proceed only if width is positive
 496              		.loc 1 416 0
 497 0020 002A     		cmp	r2, #0
 498 0022 34DD     		ble	.L26
 499              	.LBB4:
 417:ssd1306_driver.c ****       uint8_t *pBuf = &buffer[(y / 8) * SSD1306_WIDTH + x];
 500              		.loc 1 417 0
 501 0024 C817     		asrs	r0, r1, #31
 502              	.LVL61:
 503 0026 0725     		movs	r5, #7
 504 0028 2840     		ands	r0, r5
 505 002a 4118     		adds	r1, r0, r1
 506              	.LVL62:
 507 002c C910     		asrs	r1, r1, #3
 508 002e C901     		lsls	r1, r1, #7
 509 0030 7118     		adds	r1, r6, r1
 510 0032 1748     		ldr	r0, .L37
 511 0034 0918     		adds	r1, r1, r0
 512              	.LVL63:
 418:ssd1306_driver.c ****       uint8_t mask = 1 << (y & 7);
 513              		.loc 1 418 0
 514 0036 0720     		movs	r0, #7
 515 0038 0440     		ands	r4, r0
 516              	.LVL64:
 517 003a 0638     		subs	r0, r0, #6
 518 003c A040     		lsls	r0, r0, r4
 519 003e C0B2     		uxtb	r0, r0
 520              	.LVL65:
 419:ssd1306_driver.c ****     
 420:ssd1306_driver.c ****       switch (color) {
 521              		.loc 1 420 0
 522 0040 012B     		cmp	r3, #1
 523 0042 09D0     		beq	.L30
 524 0044 002B     		cmp	r3, #0
 525 0046 0CD0     		beq	.L31
 526 0048 022B     		cmp	r3, #2
 527 004a 1CD0     		beq	.L32
 528 004c 1FE0     		b	.L26
 529              	.LVL66:
 530              	.L33:
 421:ssd1306_driver.c ****         case SSD1306_WHITE:
 422:ssd1306_driver.c ****             while (w--) {
 423:ssd1306_driver.c ****                 *pBuf++ |= mask;
 531              		.loc 1 423 0
 532 004e 0A78     		ldrb	r2, [r1]
 533 0050 0243     		orrs	r2, r0
 534 0052 0A70     		strb	r2, [r1]
 422:ssd1306_driver.c ****                 *pBuf++ |= mask;
 535              		.loc 1 422 0
 536 0054 1A00     		movs	r2, r3
 537              		.loc 1 423 0
 538 0056 0131     		adds	r1, r1, #1
 539              	.LVL67:
 540              	.L30:
 422:ssd1306_driver.c ****                 *pBuf++ |= mask;
ARM GAS  C:\Users\joshw\AppData\Local\Temp\ccN7PGDU.s 			page 18


 541              		.loc 1 422 0
 542 0058 531E     		subs	r3, r2, #1
 543 005a 1BB2     		sxth	r3, r3
 544              	.LVL68:
 545 005c 002A     		cmp	r2, #0
 546 005e F6D1     		bne	.L33
 547 0060 15E0     		b	.L26
 548              	.LVL69:
 549              	.L31:
 424:ssd1306_driver.c ****             };
 425:ssd1306_driver.c ****             break;
 426:ssd1306_driver.c ****         case SSD1306_BLACK:
 427:ssd1306_driver.c ****             mask = ~mask;
 550              		.loc 1 427 0
 551 0062 C043     		mvns	r0, r0
 552              	.LVL70:
 553 0064 C0B2     		uxtb	r0, r0
 554              	.LVL71:
 428:ssd1306_driver.c ****             while (w--) {
 555              		.loc 1 428 0
 556 0066 04E0     		b	.L34
 557              	.LVL72:
 558              	.L35:
 429:ssd1306_driver.c ****                 *pBuf++ &= mask;
 559              		.loc 1 429 0
 560 0068 0A78     		ldrb	r2, [r1]
 561 006a 0240     		ands	r2, r0
 562 006c 0A70     		strb	r2, [r1]
 428:ssd1306_driver.c ****             while (w--) {
 563              		.loc 1 428 0
 564 006e 1A00     		movs	r2, r3
 565              		.loc 1 429 0
 566 0070 0131     		adds	r1, r1, #1
 567              	.LVL73:
 568              	.L34:
 428:ssd1306_driver.c ****             while (w--) {
 569              		.loc 1 428 0
 570 0072 531E     		subs	r3, r2, #1
 571 0074 1BB2     		sxth	r3, r3
 572              	.LVL74:
 573 0076 002A     		cmp	r2, #0
 574 0078 F6D1     		bne	.L35
 575 007a 08E0     		b	.L26
 576              	.L36:
 577              	.LVL75:
 430:ssd1306_driver.c ****             };
 431:ssd1306_driver.c ****             break;
 432:ssd1306_driver.c ****         case SSD1306_INVERSE:
 433:ssd1306_driver.c ****             while (w--) {
 434:ssd1306_driver.c ****                 *pBuf++ ^= mask;
 578              		.loc 1 434 0
 579 007c 0A78     		ldrb	r2, [r1]
 580 007e 4240     		eors	r2, r0
 581 0080 0A70     		strb	r2, [r1]
 433:ssd1306_driver.c ****                 *pBuf++ ^= mask;
 582              		.loc 1 433 0
 583 0082 1A00     		movs	r2, r3
ARM GAS  C:\Users\joshw\AppData\Local\Temp\ccN7PGDU.s 			page 19


 584              		.loc 1 434 0
 585 0084 0131     		adds	r1, r1, #1
 586              	.LVL76:
 587              	.L32:
 433:ssd1306_driver.c ****                 *pBuf++ ^= mask;
 588              		.loc 1 433 0
 589 0086 531E     		subs	r3, r2, #1
 590 0088 1BB2     		sxth	r3, r3
 591              	.LVL77:
 592 008a 002A     		cmp	r2, #0
 593 008c F6D1     		bne	.L36
 594              	.LVL78:
 595              	.L26:
 596              	.LBE4:
 435:ssd1306_driver.c ****             };
 436:ssd1306_driver.c ****             break;
 437:ssd1306_driver.c ****       }
 438:ssd1306_driver.c ****     }
 439:ssd1306_driver.c ****   }
 440:ssd1306_driver.c **** }
 597              		.loc 1 440 0
 598              		@ sp needed
 599 008e 70BD     		pop	{r4, r5, r6, pc}
 600              	.L38:
 601              		.align	2
 602              	.L37:
 603 0090 00000000 		.word	buffer
 604              		.cfi_endproc
 605              	.LFE40:
 606              		.size	drawFastHLine, .-drawFastHLine
 607              		.section	.text.drawFastVLine,"ax",%progbits
 608              		.align	2
 609              		.global	drawFastVLine
 610              		.code	16
 611              		.thumb_func
 612              		.type	drawFastVLine, %function
 613              	drawFastVLine:
 614              	.LFB41:
 441:ssd1306_driver.c **** 
 442:ssd1306_driver.c **** /*!
 443:ssd1306_driver.c ****     @brief  Draw a vertical line with a width and color. Used by public method
 444:ssd1306_driver.c ****    drawFastHLine,drawFastVLine
 445:ssd1306_driver.c ****         @param x
 446:ssd1306_driver.c ****                    Leftmost column -- 0 at left to (screen width - 1) at right.
 447:ssd1306_driver.c ****         @param __y
 448:ssd1306_driver.c ****                    Row of display -- 0 at top to (screen height -1) at bottom.
 449:ssd1306_driver.c ****         @param __h height of the line in pixels
 450:ssd1306_driver.c ****         @param color
 451:ssd1306_driver.c ****                    Line color, one of: SSD1306_BLACK, SSD1306_WHITE or
 452:ssd1306_driver.c ****    SSD1306_INVERSE.
 453:ssd1306_driver.c ****     @return None (void).
 454:ssd1306_driver.c ****     @note   Changes buffer contents only, no immediate effect on display.
 455:ssd1306_driver.c ****             Follow up with a call to display(), or with other graphics
 456:ssd1306_driver.c ****             commands as needed by one's own application.
 457:ssd1306_driver.c **** */
 458:ssd1306_driver.c **** void drawFastVLine(int16_t x, int16_t __y, int16_t __h, uint16_t color) {
 615              		.loc 1 458 0
ARM GAS  C:\Users\joshw\AppData\Local\Temp\ccN7PGDU.s 			page 20


 616              		.cfi_startproc
 617              		@ args = 0, pretend = 0, frame = 0
 618              		@ frame_needed = 0, uses_anonymous_args = 0
 619              	.LVL79:
 620 0000 F0B5     		push	{r4, r5, r6, r7, lr}
 621              		.cfi_def_cfa_offset 20
 622              		.cfi_offset 4, -20
 623              		.cfi_offset 5, -16
 624              		.cfi_offset 6, -12
 625              		.cfi_offset 7, -8
 626              		.cfi_offset 14, -4
 459:ssd1306_driver.c ****   if ((x >= 0) && (x < SSD1306_WIDTH)) { // X coord in bounds?
 627              		.loc 1 459 0
 628 0002 84B2     		uxth	r4, r0
 629 0004 7F2C     		cmp	r4, #127
 630 0006 6ED8     		bhi	.L39
 460:ssd1306_driver.c ****     if (__y < 0) {               // Clip top
 631              		.loc 1 460 0
 632 0008 0029     		cmp	r1, #0
 633 000a 02DA     		bge	.L41
 461:ssd1306_driver.c ****       __h += __y;
 634              		.loc 1 461 0
 635 000c 5218     		adds	r2, r2, r1
 636              	.LVL80:
 637 000e 12B2     		sxth	r2, r2
 638              	.LVL81:
 462:ssd1306_driver.c ****       __y = 0;
 639              		.loc 1 462 0
 640 0010 0021     		movs	r1, #0
 641              	.LVL82:
 642              	.L41:
 463:ssd1306_driver.c ****     }
 464:ssd1306_driver.c ****     if ((__y + __h) > SSD1306_HEIGHT) { // Clip bottom
 643              		.loc 1 464 0
 644 0012 8C18     		adds	r4, r1, r2
 645 0014 202C     		cmp	r4, #32
 646 0016 02DD     		ble	.L42
 465:ssd1306_driver.c ****       __h = (SSD1306_HEIGHT - __y);
 647              		.loc 1 465 0
 648 0018 2022     		movs	r2, #32
 649              	.LVL83:
 650 001a 521A     		subs	r2, r2, r1
 651 001c 12B2     		sxth	r2, r2
 652              	.LVL84:
 653              	.L42:
 466:ssd1306_driver.c ****     }
 467:ssd1306_driver.c ****     if (__h > 0) { // Proceed only if height is now positive
 654              		.loc 1 467 0
 655 001e 002A     		cmp	r2, #0
 656 0020 61DD     		ble	.L39
 657              	.LBB5:
 468:ssd1306_driver.c ****       // this display doesn't need ints for coordinates,
 469:ssd1306_driver.c ****       // use local byte registers for faster juggling
 470:ssd1306_driver.c ****       uint8_t y = __y, h = __h;
 658              		.loc 1 470 0
 659 0022 C9B2     		uxtb	r1, r1
 660              	.LVL85:
ARM GAS  C:\Users\joshw\AppData\Local\Temp\ccN7PGDU.s 			page 21


 661 0024 D4B2     		uxtb	r4, r2
 662              	.LVL86:
 471:ssd1306_driver.c ****       uint8_t *pBuf = &buffer[(y / 8) * SSD1306_WIDTH + x];
 663              		.loc 1 471 0
 664 0026 CA08     		lsrs	r2, r1, #3
 665              	.LVL87:
 666 0028 D201     		lsls	r2, r2, #7
 667 002a 8018     		adds	r0, r0, r2
 668              	.LVL88:
 669 002c 2E4D     		ldr	r5, .L58
 670 002e 4519     		adds	r5, r0, r5
 671              	.LVL89:
 472:ssd1306_driver.c **** 
 473:ssd1306_driver.c ****       // do the first partial byte, if necessary - this requires some masking
 474:ssd1306_driver.c ****       uint8_t mod = (y & 7);
 672              		.loc 1 474 0
 673 0030 0722     		movs	r2, #7
 674 0032 0A40     		ands	r2, r1
 675              	.LVL90:
 475:ssd1306_driver.c ****       if (mod) {
 676              		.loc 1 475 0
 677 0034 21D0     		beq	.L43
 678              	.LBB6:
 476:ssd1306_driver.c ****         // mask off the high n bits we want to set
 477:ssd1306_driver.c ****         mod = 8 - mod;
 679              		.loc 1 477 0
 680 0036 0821     		movs	r1, #8
 681              	.LVL91:
 682 0038 8A1A     		subs	r2, r1, r2
 683              	.LVL92:
 684 003a D2B2     		uxtb	r2, r2
 685              	.LVL93:
 478:ssd1306_driver.c ****         // note - lookup table results in a nearly 10% performance
 479:ssd1306_driver.c ****         // improvement in fill* functions
 480:ssd1306_driver.c ****         // uint8_t mask = ~(0xFF >> mod);
 481:ssd1306_driver.c ****         static const uint8_t premask[8] = {0x00, 0x80, 0xC0, 0xE0, 0xF0, 0xF8, 0xFC, 0xFE};
 482:ssd1306_driver.c ****         uint8_t mask = premask[mod];
 686              		.loc 1 482 0
 687 003c 2B49     		ldr	r1, .L58+4
 688 003e 8918     		adds	r1, r1, r2
 689 0040 097F     		ldrb	r1, [r1, #28]
 690              	.LVL94:
 483:ssd1306_driver.c ****         
 484:ssd1306_driver.c ****         // adjust the mask if we're not going to reach the end of this byte
 485:ssd1306_driver.c ****         if (h < mod)
 691              		.loc 1 485 0
 692 0042 9442     		cmp	r4, r2
 693 0044 03D2     		bcs	.L44
 486:ssd1306_driver.c ****           mask &= (0XFF >> (mod - h));
 694              		.loc 1 486 0
 695 0046 171B     		subs	r7, r2, r4
 696 0048 FF26     		movs	r6, #255
 697 004a 3E41     		asrs	r6, r6, r7
 698 004c 3140     		ands	r1, r6
 699              	.LVL95:
 700              	.L44:
 487:ssd1306_driver.c **** 
ARM GAS  C:\Users\joshw\AppData\Local\Temp\ccN7PGDU.s 			page 22


 488:ssd1306_driver.c ****         switch (color) {
 701              		.loc 1 488 0
 702 004e 012B     		cmp	r3, #1
 703 0050 04D0     		beq	.L46
 704 0052 002B     		cmp	r3, #0
 705 0054 07D0     		beq	.L47
 706 0056 022B     		cmp	r3, #2
 707 0058 0AD0     		beq	.L48
 708 005a 0DE0     		b	.L45
 709              	.L46:
 489:ssd1306_driver.c ****             case SSD1306_WHITE:
 490:ssd1306_driver.c ****                 *pBuf |= mask;
 710              		.loc 1 490 0
 711 005c 224F     		ldr	r7, .L58
 712 005e 3E5C     		ldrb	r6, [r7, r0]
 713 0060 3143     		orrs	r1, r6
 714              	.LVL96:
 715 0062 3954     		strb	r1, [r7, r0]
 491:ssd1306_driver.c ****                 break;
 716              		.loc 1 491 0
 717 0064 08E0     		b	.L45
 718              	.LVL97:
 719              	.L47:
 492:ssd1306_driver.c ****             case SSD1306_BLACK:
 493:ssd1306_driver.c ****                 *pBuf &= ~mask;
 720              		.loc 1 493 0
 721 0066 204F     		ldr	r7, .L58
 722 0068 3E5C     		ldrb	r6, [r7, r0]
 723 006a 8E43     		bics	r6, r1
 724 006c 3E54     		strb	r6, [r7, r0]
 494:ssd1306_driver.c ****                 break;
 725              		.loc 1 494 0
 726 006e 03E0     		b	.L45
 727              	.L48:
 495:ssd1306_driver.c ****             case SSD1306_INVERSE:
 496:ssd1306_driver.c ****                 *pBuf ^= mask;
 728              		.loc 1 496 0
 729 0070 1D4F     		ldr	r7, .L58
 730 0072 3E5C     		ldrb	r6, [r7, r0]
 731 0074 7140     		eors	r1, r6
 732              	.LVL98:
 733 0076 3954     		strb	r1, [r7, r0]
 734              	.L45:
 497:ssd1306_driver.c ****                 break;
 498:ssd1306_driver.c ****         }
 499:ssd1306_driver.c ****         pBuf += SSD1306_WIDTH;
 735              		.loc 1 499 0
 736 0078 8035     		adds	r5, r5, #128
 737              	.LVL99:
 738              	.L43:
 739              	.LBE6:
 500:ssd1306_driver.c ****       }
 501:ssd1306_driver.c **** 
 502:ssd1306_driver.c ****       if (h >= mod) { // More to go?
 740              		.loc 1 502 0
 741 007a A242     		cmp	r2, r4
 742 007c 33D8     		bhi	.L39
ARM GAS  C:\Users\joshw\AppData\Local\Temp\ccN7PGDU.s 			page 23


 503:ssd1306_driver.c ****         h -= mod;
 743              		.loc 1 503 0
 744 007e A21A     		subs	r2, r4, r2
 745              	.LVL100:
 746 0080 D2B2     		uxtb	r2, r2
 747              	.LVL101:
 504:ssd1306_driver.c ****         // Write solid bytes while we can - effectively 8 rows at a time
 505:ssd1306_driver.c ****         if (h >= 8) {
 748              		.loc 1 505 0
 749 0082 072A     		cmp	r2, #7
 750 0084 15D9     		bls	.L49
 506:ssd1306_driver.c ****           if (color == SSD1306_INVERSE) {
 751              		.loc 1 506 0
 752 0086 022B     		cmp	r3, #2
 753 0088 08D1     		bne	.L50
 754              	.L51:
 507:ssd1306_driver.c ****             // separate copy of the code so we don't impact performance of
 508:ssd1306_driver.c ****             // black/white write version with an extra comparison per loop
 509:ssd1306_driver.c ****             do {
 510:ssd1306_driver.c ****               *pBuf ^= 0xFF; // Invert byte
 755              		.loc 1 510 0 discriminator 1
 756 008a 2978     		ldrb	r1, [r5]
 757 008c C943     		mvns	r1, r1
 758 008e 2970     		strb	r1, [r5]
 511:ssd1306_driver.c ****               pBuf += SSD1306_WIDTH; // Advance pointer 8 rows
 759              		.loc 1 511 0 discriminator 1
 760 0090 8035     		adds	r5, r5, #128
 761              	.LVL102:
 512:ssd1306_driver.c ****               h -= 8;        // Subtract 8 rows from height
 762              		.loc 1 512 0 discriminator 1
 763 0092 083A     		subs	r2, r2, #8
 764              	.LVL103:
 765 0094 D2B2     		uxtb	r2, r2
 766              	.LVL104:
 513:ssd1306_driver.c ****             } while (h >= 8);
 767              		.loc 1 513 0 discriminator 1
 768 0096 072A     		cmp	r2, #7
 769 0098 F7D8     		bhi	.L51
 770 009a 0AE0     		b	.L49
 771              	.L50:
 772              	.LBB7:
 514:ssd1306_driver.c ****           } else {
 515:ssd1306_driver.c ****             // store a local value to work with
 516:ssd1306_driver.c ****             uint8_t val = (color != SSD1306_BLACK) ? 255 : 0;
 773              		.loc 1 516 0
 774 009c 002B     		cmp	r3, #0
 775 009e 01D0     		beq	.L57
 776 00a0 FF21     		movs	r1, #255
 777 00a2 00E0     		b	.L53
 778              	.L57:
 779 00a4 0021     		movs	r1, #0
 780              	.LVL105:
 781              	.L53:
 517:ssd1306_driver.c ****             do {
 518:ssd1306_driver.c ****               *pBuf = val;   // Set byte
 782              		.loc 1 518 0 discriminator 1
 783 00a6 2970     		strb	r1, [r5]
ARM GAS  C:\Users\joshw\AppData\Local\Temp\ccN7PGDU.s 			page 24


 519:ssd1306_driver.c ****               pBuf += SSD1306_WIDTH; // Advance pointer 8 rows
 784              		.loc 1 519 0 discriminator 1
 785 00a8 8035     		adds	r5, r5, #128
 786              	.LVL106:
 520:ssd1306_driver.c ****               h -= 8;        // Subtract 8 rows from height
 787              		.loc 1 520 0 discriminator 1
 788 00aa 083A     		subs	r2, r2, #8
 789              	.LVL107:
 790 00ac D2B2     		uxtb	r2, r2
 791              	.LVL108:
 521:ssd1306_driver.c ****             } while (h >= 8);
 792              		.loc 1 521 0 discriminator 1
 793 00ae 072A     		cmp	r2, #7
 794 00b0 F9D8     		bhi	.L53
 795              	.L49:
 796              	.LBE7:
 522:ssd1306_driver.c ****           }
 523:ssd1306_driver.c ****         }
 524:ssd1306_driver.c **** 
 525:ssd1306_driver.c ****         if (h) { // Do the final partial byte, if necessary
 797              		.loc 1 525 0
 798 00b2 002A     		cmp	r2, #0
 799 00b4 17D0     		beq	.L39
 800              	.LBB8:
 526:ssd1306_driver.c ****           mod = h & 7;
 801              		.loc 1 526 0
 802 00b6 0721     		movs	r1, #7
 803 00b8 0A40     		ands	r2, r1
 804              	.LVL109:
 527:ssd1306_driver.c ****           // this time we want to mask the low bits of the byte,
 528:ssd1306_driver.c ****           // vs the high bits we did above
 529:ssd1306_driver.c ****           // uint8_t mask = (1 << mod) - 1;
 530:ssd1306_driver.c ****           // note - lookup table results in a nearly 10% performance
 531:ssd1306_driver.c ****           // improvement in fill* functions
 532:ssd1306_driver.c ****           static const uint8_t postmask[8] = {0x00, 0x01, 0x03, 0x07, 0x0F, 0x1F, 0x3F, 0x7F};
 533:ssd1306_driver.c ****           uint8_t mask = postmask[mod];
 805              		.loc 1 533 0
 806 00ba 0C49     		ldr	r1, .L58+4
 807 00bc 8A18     		adds	r2, r1, r2
 808              	.LVL110:
 809 00be 2421     		movs	r1, #36
 810 00c0 525C     		ldrb	r2, [r2, r1]
 811              	.LVL111:
 534:ssd1306_driver.c ****           switch (color) {
 812              		.loc 1 534 0
 813 00c2 012B     		cmp	r3, #1
 814 00c4 04D0     		beq	.L54
 815 00c6 002B     		cmp	r3, #0
 816 00c8 06D0     		beq	.L55
 817 00ca 022B     		cmp	r3, #2
 818 00cc 08D0     		beq	.L56
 819 00ce 0AE0     		b	.L39
 820              	.L54:
 535:ssd1306_driver.c ****             case SSD1306_WHITE:
 536:ssd1306_driver.c ****                 *pBuf |= mask;
 821              		.loc 1 536 0
 822 00d0 2B78     		ldrb	r3, [r5]
ARM GAS  C:\Users\joshw\AppData\Local\Temp\ccN7PGDU.s 			page 25


 823              	.LVL112:
 824 00d2 1A43     		orrs	r2, r3
 825              	.LVL113:
 826 00d4 2A70     		strb	r2, [r5]
 537:ssd1306_driver.c ****                 break;
 827              		.loc 1 537 0
 828 00d6 06E0     		b	.L39
 829              	.LVL114:
 830              	.L55:
 538:ssd1306_driver.c ****             case SSD1306_BLACK:
 539:ssd1306_driver.c ****                 *pBuf &= ~mask;
 831              		.loc 1 539 0
 832 00d8 2B78     		ldrb	r3, [r5]
 833              	.LVL115:
 834 00da 9343     		bics	r3, r2
 835 00dc 2B70     		strb	r3, [r5]
 540:ssd1306_driver.c ****                 break;
 836              		.loc 1 540 0
 837 00de 02E0     		b	.L39
 838              	.LVL116:
 839              	.L56:
 541:ssd1306_driver.c ****             case SSD1306_INVERSE:
 542:ssd1306_driver.c ****                 *pBuf ^= mask;
 840              		.loc 1 542 0
 841 00e0 2B78     		ldrb	r3, [r5]
 842              	.LVL117:
 843 00e2 5A40     		eors	r2, r3
 844              	.LVL118:
 845 00e4 2A70     		strb	r2, [r5]
 846              	.LVL119:
 847              	.L39:
 848              	.LBE8:
 849              	.LBE5:
 543:ssd1306_driver.c ****                 break;
 544:ssd1306_driver.c ****           }
 545:ssd1306_driver.c ****         }
 546:ssd1306_driver.c ****       }
 547:ssd1306_driver.c ****     } // endif positive height
 548:ssd1306_driver.c ****   } // endif x in bounds
 549:ssd1306_driver.c **** }
 850              		.loc 1 549 0
 851              		@ sp needed
 852 00e6 F0BD     		pop	{r4, r5, r6, r7, pc}
 853              	.L59:
 854              		.align	2
 855              	.L58:
 856 00e8 00000000 		.word	buffer
 857 00ec 00010000 		.word	.LANCHOR1
 858              		.cfi_endproc
 859              	.LFE41:
 860              		.size	drawFastVLine, .-drawFastVLine
 861              		.section	.text.getPixel,"ax",%progbits
 862              		.align	2
 863              		.global	getPixel
 864              		.code	16
 865              		.thumb_func
 866              		.type	getPixel, %function
ARM GAS  C:\Users\joshw\AppData\Local\Temp\ccN7PGDU.s 			page 26


 867              	getPixel:
 868              	.LFB42:
 550:ssd1306_driver.c **** 
 551:ssd1306_driver.c **** /*!
 552:ssd1306_driver.c ****     @brief  Return color of a single pixel in display buffer.
 553:ssd1306_driver.c ****     @param  x
 554:ssd1306_driver.c ****             Column of display -- 0 at left to (screen width - 1) at right.
 555:ssd1306_driver.c ****     @param  y
 556:ssd1306_driver.c ****             Row of display -- 0 at top to (screen height -1) at bottom.
 557:ssd1306_driver.c ****     @return true if pixel is set (usually SSD1306_WHITE, unless display invert
 558:ssd1306_driver.c ****    mode is enabled), false if clear (SSD1306_BLACK).
 559:ssd1306_driver.c ****     @note   Reads from buffer contents; may not reflect current contents of
 560:ssd1306_driver.c ****             screen if display() has not been called.
 561:ssd1306_driver.c **** */
 562:ssd1306_driver.c **** bool getPixel(int16_t x, int16_t y) {
 869              		.loc 1 562 0
 870              		.cfi_startproc
 871              		@ args = 0, pretend = 0, frame = 0
 872              		@ frame_needed = 0, uses_anonymous_args = 0
 873              		@ link register save eliminated.
 874              	.LVL120:
 563:ssd1306_driver.c ****     if ((x >= 0) && (x < SSD1306_WIDTH) && (y >= 0) && (y < SSD1306_HEIGHT)) {
 875              		.loc 1 563 0
 876 0000 83B2     		uxth	r3, r0
 877 0002 7F2B     		cmp	r3, #127
 878 0004 14D8     		bhi	.L62
 879              		.loc 1 563 0 is_stmt 0 discriminator 1
 880 0006 0029     		cmp	r1, #0
 881 0008 14DB     		blt	.L63
 882              		.loc 1 563 0 discriminator 2
 883 000a 1F29     		cmp	r1, #31
 884 000c 14DC     		bgt	.L64
 564:ssd1306_driver.c ****         return (buffer[x + (y / 8) * SSD1306_WIDTH] & (1 << (y & 7)));
 885              		.loc 1 564 0 is_stmt 1
 886 000e CB17     		asrs	r3, r1, #31
 887 0010 0722     		movs	r2, #7
 888 0012 1340     		ands	r3, r2
 889 0014 5B18     		adds	r3, r3, r1
 890 0016 DB10     		asrs	r3, r3, #3
 891 0018 DB01     		lsls	r3, r3, #7
 892 001a C018     		adds	r0, r0, r3
 893              	.LVL121:
 894 001c 074B     		ldr	r3, .L65
 895 001e 1B5C     		ldrb	r3, [r3, r0]
 896 0020 1140     		ands	r1, r2
 897              	.LVL122:
 898 0022 0120     		movs	r0, #1
 899 0024 8840     		lsls	r0, r0, r1
 900 0026 1840     		ands	r0, r3
 901 0028 431E     		subs	r3, r0, #1
 902 002a 9841     		sbcs	r0, r0, r3
 903 002c C0B2     		uxtb	r0, r0
 904 002e 04E0     		b	.L61
 905              	.LVL123:
 906              	.L62:
 565:ssd1306_driver.c ****     }
 566:ssd1306_driver.c ****     return false; // Pixel out of bounds
ARM GAS  C:\Users\joshw\AppData\Local\Temp\ccN7PGDU.s 			page 27


 907              		.loc 1 566 0
 908 0030 0020     		movs	r0, #0
 909              	.LVL124:
 910 0032 02E0     		b	.L61
 911              	.LVL125:
 912              	.L63:
 913 0034 0020     		movs	r0, #0
 914              	.LVL126:
 915 0036 00E0     		b	.L61
 916              	.LVL127:
 917              	.L64:
 918 0038 0020     		movs	r0, #0
 919              	.LVL128:
 920              	.L61:
 567:ssd1306_driver.c **** }
 921              		.loc 1 567 0
 922              		@ sp needed
 923 003a 7047     		bx	lr
 924              	.L66:
 925              		.align	2
 926              	.L65:
 927 003c 00000000 		.word	buffer
 928              		.cfi_endproc
 929              	.LFE42:
 930              		.size	getPixel, .-getPixel
 931              		.section	.text.drawChar,"ax",%progbits
 932              		.align	2
 933              		.global	drawChar
 934              		.code	16
 935              		.thumb_func
 936              		.type	drawChar, %function
 937              	drawChar:
 938              	.LFB43:
 568:ssd1306_driver.c **** 
 569:ssd1306_driver.c **** void drawChar(int16_t x, int16_t y, char c, uint16_t color) {
 939              		.loc 1 569 0
 940              		.cfi_startproc
 941              		@ args = 0, pretend = 0, frame = 8
 942              		@ frame_needed = 0, uses_anonymous_args = 0
 943              	.LVL129:
 944 0000 F0B5     		push	{r4, r5, r6, r7, lr}
 945              		.cfi_def_cfa_offset 20
 946              		.cfi_offset 4, -20
 947              		.cfi_offset 5, -16
 948              		.cfi_offset 6, -12
 949              		.cfi_offset 7, -8
 950              		.cfi_offset 14, -4
 951 0002 4F46     		mov	r7, r9
 952 0004 4646     		mov	r6, r8
 953 0006 C0B4     		push	{r6, r7}
 954              		.cfi_def_cfa_offset 28
 955              		.cfi_offset 8, -28
 956              		.cfi_offset 9, -24
 957 0008 83B0     		sub	sp, sp, #12
 958              		.cfi_def_cfa_offset 40
 959 000a 0600     		movs	r6, r0
 960 000c 8946     		mov	r9, r1
ARM GAS  C:\Users\joshw\AppData\Local\Temp\ccN7PGDU.s 			page 28


 961 000e 0193     		str	r3, [sp, #4]
 962              	.LVL130:
 570:ssd1306_driver.c ****     int font_index = -1;
 571:ssd1306_driver.c ****     
 572:ssd1306_driver.c ****     // Map character to font array index
 573:ssd1306_driver.c ****     if (c >= '0' && c <= '9') {
 963              		.loc 1 573 0
 964 0010 1300     		movs	r3, r2
 965              	.LVL131:
 966 0012 303B     		subs	r3, r3, #48
 967 0014 DBB2     		uxtb	r3, r3
 968 0016 092B     		cmp	r3, #9
 969 0018 01D8     		bhi	.L68
 574:ssd1306_driver.c ****         font_index = c - '0';  // 0-9 (indices 0-9)
 970              		.loc 1 574 0
 971 001a 303A     		subs	r2, r2, #48
 972              	.LVL132:
 973 001c 44E0     		b	.L69
 974              	.LVL133:
 975              	.L68:
 575:ssd1306_driver.c ****     } else if (c >= 'A' && c <= 'Z') {
 976              		.loc 1 575 0
 977 001e 1300     		movs	r3, r2
 978 0020 413B     		subs	r3, r3, #65
 979 0022 DBB2     		uxtb	r3, r3
 980 0024 192B     		cmp	r3, #25
 981 0026 01D8     		bhi	.L70
 576:ssd1306_driver.c ****         font_index = 10 + (c - 'A');  // A-Z (indices 10-35)
 982              		.loc 1 576 0
 983 0028 373A     		subs	r2, r2, #55
 984              	.LVL134:
 985 002a 3DE0     		b	.L69
 986              	.LVL135:
 987              	.L70:
 577:ssd1306_driver.c ****     } else if (c >= 'a' && c <= 'z') {
 988              		.loc 1 577 0
 989 002c 1300     		movs	r3, r2
 990 002e 613B     		subs	r3, r3, #97
 991 0030 DBB2     		uxtb	r3, r3
 992 0032 192B     		cmp	r3, #25
 993 0034 01D8     		bhi	.L71
 578:ssd1306_driver.c ****         font_index = 36 + (c - 'a');  // a-z (indices 36-61)
 994              		.loc 1 578 0
 995 0036 3D3A     		subs	r2, r2, #61
 996              	.LVL136:
 997 0038 36E0     		b	.L69
 998              	.LVL137:
 999              	.L71:
 579:ssd1306_driver.c ****     } else {
 580:ssd1306_driver.c ****         // Special characters
 581:ssd1306_driver.c ****         switch(c) {
 1000              		.loc 1 581 0
 1001 003a 203A     		subs	r2, r2, #32
 1002              	.LVL138:
 1003 003c D3B2     		uxtb	r3, r2
 1004 003e 3F2B     		cmp	r3, #63
 1005 0040 5DD8     		bhi	.L67
ARM GAS  C:\Users\joshw\AppData\Local\Temp\ccN7PGDU.s 			page 29


 1006 0042 9A00     		lsls	r2, r3, #2
 1007 0044 304B     		ldr	r3, .L104
 1008 0046 9B58     		ldr	r3, [r3, r2]
 1009 0048 9F46     		mov	pc, r3
 1010              		.section	.rodata
 1011              		.align	2
 1012              	.L74:
 1013 0000 4A000000 		.word	.L73
 1014 0004 A6000000 		.word	.L103
 1015 0008 8E000000 		.word	.L75
 1016 000c 96000000 		.word	.L76
 1017 0010 9A000000 		.word	.L77
 1018 0014 7A000000 		.word	.L78
 1019 0018 9E000000 		.word	.L79
 1020 001c 92000000 		.word	.L80
 1021 0020 7E000000 		.word	.L81
 1022 0024 82000000 		.word	.L82
 1023 0028 76000000 		.word	.L83
 1024 002c 6E000000 		.word	.L84
 1025 0030 52000000 		.word	.L85
 1026 0034 62000000 		.word	.L86
 1027 0038 4E000000 		.word	.L87
 1028 003c 6A000000 		.word	.L88
 1029 0040 FE000000 		.word	.L67
 1030 0044 FE000000 		.word	.L67
 1031 0048 FE000000 		.word	.L67
 1032 004c FE000000 		.word	.L67
 1033 0050 FE000000 		.word	.L67
 1034 0054 FE000000 		.word	.L67
 1035 0058 FE000000 		.word	.L67
 1036 005c FE000000 		.word	.L67
 1037 0060 FE000000 		.word	.L67
 1038 0064 FE000000 		.word	.L67
 1039 0068 56000000 		.word	.L89
 1040 006c 5A000000 		.word	.L90
 1041 0070 FE000000 		.word	.L67
 1042 0074 72000000 		.word	.L91
 1043 0078 FE000000 		.word	.L67
 1044 007c 5E000000 		.word	.L92
 1045 0080 A2000000 		.word	.L93
 1046 0084 FE000000 		.word	.L67
 1047 0088 FE000000 		.word	.L67
 1048 008c FE000000 		.word	.L67
 1049 0090 FE000000 		.word	.L67
 1050 0094 FE000000 		.word	.L67
 1051 0098 FE000000 		.word	.L67
 1052 009c FE000000 		.word	.L67
 1053 00a0 FE000000 		.word	.L67
 1054 00a4 FE000000 		.word	.L67
 1055 00a8 FE000000 		.word	.L67
 1056 00ac FE000000 		.word	.L67
 1057 00b0 FE000000 		.word	.L67
 1058 00b4 FE000000 		.word	.L67
 1059 00b8 FE000000 		.word	.L67
 1060 00bc FE000000 		.word	.L67
 1061 00c0 FE000000 		.word	.L67
 1062 00c4 FE000000 		.word	.L67
ARM GAS  C:\Users\joshw\AppData\Local\Temp\ccN7PGDU.s 			page 30


 1063 00c8 FE000000 		.word	.L67
 1064 00cc FE000000 		.word	.L67
 1065 00d0 FE000000 		.word	.L67
 1066 00d4 FE000000 		.word	.L67
 1067 00d8 FE000000 		.word	.L67
 1068 00dc FE000000 		.word	.L67
 1069 00e0 FE000000 		.word	.L67
 1070 00e4 FE000000 		.word	.L67
 1071 00e8 FE000000 		.word	.L67
 1072 00ec 86000000 		.word	.L94
 1073 00f0 FE000000 		.word	.L67
 1074 00f4 8A000000 		.word	.L95
 1075 00f8 FE000000 		.word	.L67
 1076 00fc 66000000 		.word	.L96
 1077              		.section	.text.drawChar
 1078              	.L73:
 582:ssd1306_driver.c ****             case ' ':  font_index = 62; break;
 1079              		.loc 1 582 0
 1080 004a 3E22     		movs	r2, #62
 1081 004c 2CE0     		b	.L69
 1082              	.L87:
 1083              	.LVL139:
 583:ssd1306_driver.c ****             case '!':  font_index = 63; break;
 584:ssd1306_driver.c ****             case '.':  font_index = 64; break;
 1084              		.loc 1 584 0
 1085 004e 4022     		movs	r2, #64
 1086 0050 2AE0     		b	.L69
 1087              	.LVL140:
 1088              	.L85:
 585:ssd1306_driver.c ****             case ',':  font_index = 65; break;
 1089              		.loc 1 585 0
 1090 0052 4122     		movs	r2, #65
 1091 0054 28E0     		b	.L69
 1092              	.LVL141:
 1093              	.L89:
 586:ssd1306_driver.c ****             case ':':  font_index = 66; break;
 1094              		.loc 1 586 0
 1095 0056 4222     		movs	r2, #66
 1096 0058 26E0     		b	.L69
 1097              	.LVL142:
 1098              	.L90:
 587:ssd1306_driver.c ****             case ';':  font_index = 67; break;
 1099              		.loc 1 587 0
 1100 005a 4322     		movs	r2, #67
 1101 005c 24E0     		b	.L69
 1102              	.LVL143:
 1103              	.L92:
 588:ssd1306_driver.c ****             case '?':  font_index = 68; break;
 1104              		.loc 1 588 0
 1105 005e 4422     		movs	r2, #68
 1106 0060 22E0     		b	.L69
 1107              	.LVL144:
 1108              	.L86:
 589:ssd1306_driver.c ****             case '-':  font_index = 69; break;
 1109              		.loc 1 589 0
 1110 0062 4522     		movs	r2, #69
 1111 0064 20E0     		b	.L69
ARM GAS  C:\Users\joshw\AppData\Local\Temp\ccN7PGDU.s 			page 31


 1112              	.LVL145:
 1113              	.L96:
 590:ssd1306_driver.c ****             case '_':  font_index = 70; break;
 1114              		.loc 1 590 0
 1115 0066 4622     		movs	r2, #70
 1116 0068 1EE0     		b	.L69
 1117              	.LVL146:
 1118              	.L88:
 591:ssd1306_driver.c ****             case '/':  font_index = 71; break;
 1119              		.loc 1 591 0
 1120 006a 4722     		movs	r2, #71
 1121 006c 1CE0     		b	.L69
 1122              	.LVL147:
 1123              	.L84:
 592:ssd1306_driver.c ****             case '+':  font_index = 72; break;
 1124              		.loc 1 592 0
 1125 006e 4822     		movs	r2, #72
 1126 0070 1AE0     		b	.L69
 1127              	.LVL148:
 1128              	.L91:
 593:ssd1306_driver.c ****             case '=':  font_index = 73; break;
 1129              		.loc 1 593 0
 1130 0072 4922     		movs	r2, #73
 1131 0074 18E0     		b	.L69
 1132              	.LVL149:
 1133              	.L83:
 594:ssd1306_driver.c ****             case '*':  font_index = 74; break;
 1134              		.loc 1 594 0
 1135 0076 4A22     		movs	r2, #74
 1136 0078 16E0     		b	.L69
 1137              	.LVL150:
 1138              	.L78:
 595:ssd1306_driver.c ****             case '%':  font_index = 75; break;
 1139              		.loc 1 595 0
 1140 007a 4B22     		movs	r2, #75
 1141 007c 14E0     		b	.L69
 1142              	.LVL151:
 1143              	.L81:
 596:ssd1306_driver.c ****             case '(':  font_index = 76; break;
 1144              		.loc 1 596 0
 1145 007e 4C22     		movs	r2, #76
 1146 0080 12E0     		b	.L69
 1147              	.LVL152:
 1148              	.L82:
 597:ssd1306_driver.c ****             case ')':  font_index = 77; break;
 1149              		.loc 1 597 0
 1150 0082 4D22     		movs	r2, #77
 1151 0084 10E0     		b	.L69
 1152              	.LVL153:
 1153              	.L94:
 598:ssd1306_driver.c ****             case '[':  font_index = 78; break;
 1154              		.loc 1 598 0
 1155 0086 4E22     		movs	r2, #78
 1156 0088 0EE0     		b	.L69
 1157              	.LVL154:
 1158              	.L95:
 599:ssd1306_driver.c ****             case ']':  font_index = 79; break;
ARM GAS  C:\Users\joshw\AppData\Local\Temp\ccN7PGDU.s 			page 32


 1159              		.loc 1 599 0
 1160 008a 4F22     		movs	r2, #79
 1161 008c 0CE0     		b	.L69
 1162              	.LVL155:
 1163              	.L75:
 600:ssd1306_driver.c ****             case '"':  font_index = 80; break;
 1164              		.loc 1 600 0
 1165 008e 5022     		movs	r2, #80
 1166 0090 0AE0     		b	.L69
 1167              	.LVL156:
 1168              	.L80:
 601:ssd1306_driver.c ****             case '\'': font_index = 81; break;
 1169              		.loc 1 601 0
 1170 0092 5122     		movs	r2, #81
 1171 0094 08E0     		b	.L69
 1172              	.LVL157:
 1173              	.L76:
 602:ssd1306_driver.c ****             case '#':  font_index = 82; break;
 1174              		.loc 1 602 0
 1175 0096 5222     		movs	r2, #82
 1176 0098 06E0     		b	.L69
 1177              	.LVL158:
 1178              	.L77:
 603:ssd1306_driver.c ****             case '$':  font_index = 83; break;
 1179              		.loc 1 603 0
 1180 009a 5322     		movs	r2, #83
 1181 009c 04E0     		b	.L69
 1182              	.LVL159:
 1183              	.L79:
 604:ssd1306_driver.c ****             case '&':  font_index = 84; break;
 1184              		.loc 1 604 0
 1185 009e 5422     		movs	r2, #84
 1186 00a0 02E0     		b	.L69
 1187              	.LVL160:
 1188              	.L93:
 605:ssd1306_driver.c ****             case '@':  font_index = 85; break;
 1189              		.loc 1 605 0
 1190 00a2 5522     		movs	r2, #85
 1191 00a4 00E0     		b	.L69
 1192              	.LVL161:
 1193              	.L103:
 583:ssd1306_driver.c ****             case '.':  font_index = 64; break;
 1194              		.loc 1 583 0
 1195 00a6 3F22     		movs	r2, #63
 1196              	.LVL162:
 1197              	.L69:
 606:ssd1306_driver.c ****             default:   return;  // Unsupported character
 607:ssd1306_driver.c ****         }
 608:ssd1306_driver.c ****     }
 609:ssd1306_driver.c ****     
 610:ssd1306_driver.c ****     if (font_index < 0) return;  // Invalid character
 1198              		.loc 1 610 0
 1199 00a8 002A     		cmp	r2, #0
 1200 00aa 28DB     		blt	.L67
 611:ssd1306_driver.c ****     
 612:ssd1306_driver.c ****     const uint8_t *bitmap = font[font_index];
 1201              		.loc 1 612 0
ARM GAS  C:\Users\joshw\AppData\Local\Temp\ccN7PGDU.s 			page 33


 1202 00ac 9300     		lsls	r3, r2, #2
 1203 00ae 9A18     		adds	r2, r3, r2
 1204              	.LVL163:
 1205 00b0 164B     		ldr	r3, .L104+4
 1206 00b2 2C33     		adds	r3, r3, #44
 1207 00b4 9846     		mov	r8, r3
 1208 00b6 9044     		add	r8, r8, r2
 1209              	.LVL164:
 1210              	.LBB9:
 613:ssd1306_driver.c ****     
 614:ssd1306_driver.c ****     for (uint8_t i = 0; i < FONT_WIDTH; i++) {
 1211              		.loc 1 614 0
 1212 00b8 0025     		movs	r5, #0
 1213 00ba 1EE0     		b	.L97
 1214              	.LVL165:
 1215              	.L102:
 1216              	.LBB10:
 615:ssd1306_driver.c ****         uint8_t col = bitmap[i];
 1217              		.loc 1 615 0
 1218 00bc 4346     		mov	r3, r8
 1219 00be 5F5D     		ldrb	r7, [r3, r5]
 1220              	.LVL166:
 1221              	.LBB11:
 616:ssd1306_driver.c ****         for (uint8_t j = 0; j < FONT_HEIGHT; j++) {
 1222              		.loc 1 616 0
 1223 00c0 0024     		movs	r4, #0
 1224 00c2 16E0     		b	.L98
 1225              	.LVL167:
 1226              	.L101:
 617:ssd1306_driver.c ****             if (col & (1 << j)) {
 1227              		.loc 1 617 0
 1228 00c4 3B00     		movs	r3, r7
 1229 00c6 2341     		asrs	r3, r3, r4
 1230 00c8 DB07     		lsls	r3, r3, #31
 1231 00ca 08D5     		bpl	.L99
 618:ssd1306_driver.c ****                 drawPixel(x + i, y + j, color);
 1232              		.loc 1 618 0
 1233 00cc 4B46     		mov	r3, r9
 1234 00ce E118     		adds	r1, r4, r3
 1235 00d0 09B2     		sxth	r1, r1
 1236 00d2 A819     		adds	r0, r5, r6
 1237 00d4 00B2     		sxth	r0, r0
 1238 00d6 019A     		ldr	r2, [sp, #4]
 1239 00d8 FFF7FEFF 		bl	drawPixel
 1240              	.LVL168:
 1241 00dc 07E0     		b	.L100
 1242              	.L99:
 619:ssd1306_driver.c ****             } else {
 620:ssd1306_driver.c ****                 drawPixel(x + i, y + j, SSD1306_BLACK);
 1243              		.loc 1 620 0
 1244 00de 4B46     		mov	r3, r9
 1245 00e0 E118     		adds	r1, r4, r3
 1246 00e2 09B2     		sxth	r1, r1
 1247 00e4 A819     		adds	r0, r5, r6
 1248 00e6 00B2     		sxth	r0, r0
 1249 00e8 0022     		movs	r2, #0
 1250 00ea FFF7FEFF 		bl	drawPixel
ARM GAS  C:\Users\joshw\AppData\Local\Temp\ccN7PGDU.s 			page 34


 1251              	.LVL169:
 1252              	.L100:
 616:ssd1306_driver.c ****             if (col & (1 << j)) {
 1253              		.loc 1 616 0 discriminator 2
 1254 00ee 0134     		adds	r4, r4, #1
 1255              	.LVL170:
 1256 00f0 E4B2     		uxtb	r4, r4
 1257              	.LVL171:
 1258              	.L98:
 616:ssd1306_driver.c ****             if (col & (1 << j)) {
 1259              		.loc 1 616 0 is_stmt 0 discriminator 1
 1260 00f2 062C     		cmp	r4, #6
 1261 00f4 E6D9     		bls	.L101
 1262              	.LBE11:
 1263              	.LBE10:
 614:ssd1306_driver.c ****         uint8_t col = bitmap[i];
 1264              		.loc 1 614 0 is_stmt 1 discriminator 2
 1265 00f6 0135     		adds	r5, r5, #1
 1266              	.LVL172:
 1267 00f8 EDB2     		uxtb	r5, r5
 1268              	.LVL173:
 1269              	.L97:
 614:ssd1306_driver.c ****         uint8_t col = bitmap[i];
 1270              		.loc 1 614 0 is_stmt 0 discriminator 1
 1271 00fa 042D     		cmp	r5, #4
 1272 00fc DED9     		bls	.L102
 1273              	.LVL174:
 1274              	.L67:
 1275              	.LBE9:
 621:ssd1306_driver.c ****             }
 622:ssd1306_driver.c ****         }
 623:ssd1306_driver.c ****     }
 624:ssd1306_driver.c **** }
 1276              		.loc 1 624 0 is_stmt 1
 1277 00fe 03B0     		add	sp, sp, #12
 1278              		@ sp needed
 1279 0100 0CBC     		pop	{r2, r3}
 1280 0102 9046     		mov	r8, r2
 1281 0104 9946     		mov	r9, r3
 1282 0106 F0BD     		pop	{r4, r5, r6, r7, pc}
 1283              	.L105:
 1284              		.align	2
 1285              	.L104:
 1286 0108 00000000 		.word	.L74
 1287 010c 00010000 		.word	.LANCHOR1
 1288              		.cfi_endproc
 1289              	.LFE43:
 1290              		.size	drawChar, .-drawChar
 1291              		.section	.text.drawString,"ax",%progbits
 1292              		.align	2
 1293              		.global	drawString
 1294              		.code	16
 1295              		.thumb_func
 1296              		.type	drawString, %function
 1297              	drawString:
 1298              	.LFB44:
 625:ssd1306_driver.c **** 
ARM GAS  C:\Users\joshw\AppData\Local\Temp\ccN7PGDU.s 			page 35


 626:ssd1306_driver.c **** void drawString(int16_t x, int16_t y, const char *str, uint16_t color) {
 1299              		.loc 1 626 0
 1300              		.cfi_startproc
 1301              		@ args = 0, pretend = 0, frame = 0
 1302              		@ frame_needed = 0, uses_anonymous_args = 0
 1303              	.LVL175:
 1304 0000 F8B5     		push	{r3, r4, r5, r6, r7, lr}
 1305              		.cfi_def_cfa_offset 24
 1306              		.cfi_offset 3, -24
 1307              		.cfi_offset 4, -20
 1308              		.cfi_offset 5, -16
 1309              		.cfi_offset 6, -12
 1310              		.cfi_offset 7, -8
 1311              		.cfi_offset 14, -4
 1312 0002 0400     		movs	r4, r0
 1313 0004 0E00     		movs	r6, r1
 1314 0006 1700     		movs	r7, r2
 1315 0008 1D00     		movs	r5, r3
 627:ssd1306_driver.c ****     while (*str) {
 1316              		.loc 1 627 0
 1317 000a 07E0     		b	.L107
 1318              	.LVL176:
 1319              	.L108:
 628:ssd1306_driver.c ****         drawChar(x, y, *str, color);
 1320              		.loc 1 628 0
 1321 000c 2B00     		movs	r3, r5
 1322 000e 3100     		movs	r1, r6
 1323 0010 2000     		movs	r0, r4
 1324 0012 FFF7FEFF 		bl	drawChar
 1325              	.LVL177:
 629:ssd1306_driver.c ****         x += FONT_WIDTH + 1;
 1326              		.loc 1 629 0
 1327 0016 0634     		adds	r4, r4, #6
 1328              	.LVL178:
 1329 0018 24B2     		sxth	r4, r4
 1330              	.LVL179:
 630:ssd1306_driver.c ****         str++;
 1331              		.loc 1 630 0
 1332 001a 0137     		adds	r7, r7, #1
 1333              	.LVL180:
 1334              	.L107:
 627:ssd1306_driver.c ****         drawChar(x, y, *str, color);
 1335              		.loc 1 627 0
 1336 001c 3A78     		ldrb	r2, [r7]
 1337 001e 002A     		cmp	r2, #0
 1338 0020 F4D1     		bne	.L108
 631:ssd1306_driver.c ****     }
 632:ssd1306_driver.c **** }
 1339              		.loc 1 632 0
 1340              		@ sp needed
 1341              	.LVL181:
 1342              	.LVL182:
 1343 0022 F8BD     		pop	{r3, r4, r5, r6, r7, pc}
 1344              		.cfi_endproc
 1345              	.LFE44:
 1346              		.size	drawString, .-drawString
 1347              		.section	.text.getBuffer,"ax",%progbits
ARM GAS  C:\Users\joshw\AppData\Local\Temp\ccN7PGDU.s 			page 36


 1348              		.align	2
 1349              		.global	getBuffer
 1350              		.code	16
 1351              		.thumb_func
 1352              		.type	getBuffer, %function
 1353              	getBuffer:
 1354              	.LFB45:
 633:ssd1306_driver.c **** 
 634:ssd1306_driver.c **** /*!
 635:ssd1306_driver.c ****     @brief  Get base address of display buffer for direct reading or writing.
 636:ssd1306_driver.c ****     @return Pointer to an unsigned 8-bit array, column-major, columns padded
 637:ssd1306_driver.c ****             to full byte boundary if needed.
 638:ssd1306_driver.c **** */
 639:ssd1306_driver.c **** uint8_t* getBuffer(void) { return buffer; }
 1355              		.loc 1 639 0
 1356              		.cfi_startproc
 1357              		@ args = 0, pretend = 0, frame = 0
 1358              		@ frame_needed = 0, uses_anonymous_args = 0
 1359              		@ link register save eliminated.
 1360              		.loc 1 639 0
 1361 0000 0048     		ldr	r0, .L110
 1362              		@ sp needed
 1363 0002 7047     		bx	lr
 1364              	.L111:
 1365              		.align	2
 1366              	.L110:
 1367 0004 00000000 		.word	buffer
 1368              		.cfi_endproc
 1369              	.LFE45:
 1370              		.size	getBuffer, .-getBuffer
 1371              		.section	.text.refreshDisplay,"ax",%progbits
 1372              		.align	2
 1373              		.global	refreshDisplay
 1374              		.code	16
 1375              		.thumb_func
 1376              		.type	refreshDisplay, %function
 1377              	refreshDisplay:
 1378              	.LFB46:
 640:ssd1306_driver.c **** 
 641:ssd1306_driver.c **** // REFRESH DISPLAY ---------------------------------------------------------
 642:ssd1306_driver.c **** 
 643:ssd1306_driver.c **** /*!
 644:ssd1306_driver.c ****     @brief  Push data currently in RAM to SSD1306 display.
 645:ssd1306_driver.c ****     @return None (void).
 646:ssd1306_driver.c ****     @note   Drawing operations are not visible until this function is
 647:ssd1306_driver.c ****             called. Call after each graphics command, or after a whole set
 648:ssd1306_driver.c ****             of graphics commands, as best needed by one's own application.
 649:ssd1306_driver.c **** */
 650:ssd1306_driver.c **** void refreshDisplay(void) {
 1379              		.loc 1 650 0
 1380              		.cfi_startproc
 1381              		@ args = 0, pretend = 0, frame = 0
 1382              		@ frame_needed = 0, uses_anonymous_args = 0
 1383 0000 F0B5     		push	{r4, r5, r6, r7, lr}
 1384              		.cfi_def_cfa_offset 20
 1385              		.cfi_offset 4, -20
 1386              		.cfi_offset 5, -16
ARM GAS  C:\Users\joshw\AppData\Local\Temp\ccN7PGDU.s 			page 37


 1387              		.cfi_offset 6, -12
 1388              		.cfi_offset 7, -8
 1389              		.cfi_offset 14, -4
 1390 0002 4746     		mov	r7, r8
 1391 0004 80B4     		push	{r7}
 1392              		.cfi_def_cfa_offset 24
 1393              		.cfi_offset 8, -24
 651:ssd1306_driver.c ****     static const uint8_t dlist1[] = {
 652:ssd1306_driver.c ****         SSD1306_PAGEADDR,
 653:ssd1306_driver.c ****         0,                   // Page start address
 654:ssd1306_driver.c ****         0xFF,                // Page end (not really, but works here)
 655:ssd1306_driver.c ****         SSD1306_COLUMNADDR,
 656:ssd1306_driver.c ****         0,
 657:ssd1306_driver.c ****         SSD1306_WIDTH - 1
 658:ssd1306_driver.c ****     }; // Column start address
 659:ssd1306_driver.c ****     
 660:ssd1306_driver.c ****     SSD1306_SendCommandList(dlist1, sizeof(dlist1));
 1394              		.loc 1 660 0
 1395 0006 0621     		movs	r1, #6
 1396 0008 1748     		ldr	r0, .L118
 1397 000a FFF7FEFF 		bl	SSD1306_SendCommandList
 1398              	.LVL183:
 661:ssd1306_driver.c ****     
 662:ssd1306_driver.c ****     uint16_t count = SSD1306_WIDTH * ((SSD1306_HEIGHT + 7) / 8);
 663:ssd1306_driver.c ****     uint8_t *ptr = buffer;
 1399              		.loc 1 663 0
 1400 000e 174D     		ldr	r5, .L118+4
 662:ssd1306_driver.c ****     uint8_t *ptr = buffer;
 1401              		.loc 1 662 0
 1402 0010 8023     		movs	r3, #128
 1403 0012 9B00     		lsls	r3, r3, #2
 1404 0014 9846     		mov	r8, r3
 664:ssd1306_driver.c ****     
 665:ssd1306_driver.c ****     while (count > 0) {
 1405              		.loc 1 665 0
 1406 0016 21E0     		b	.L113
 1407              	.LVL184:
 1408              	.L117:
 1409              	.LBB12:
 666:ssd1306_driver.c ****         uint16_t chunk = (count > I2C_CHUNK_SIZE) ? I2C_CHUNK_SIZE : count;
 1410              		.loc 1 666 0
 1411 0018 4346     		mov	r3, r8
 1412 001a 4246     		mov	r2, r8
 1413 001c 102A     		cmp	r2, #16
 1414 001e 00D9     		bls	.L114
 1415              	.LVL185:
 1416 0020 1023     		movs	r3, #16
 1417              	.LVL186:
 1418              	.L114:
 1419 0022 9FB2     		uxth	r7, r3
 1420              	.LVL187:
 667:ssd1306_driver.c ****         
 668:ssd1306_driver.c ****         I2C_I2CMasterSendStart(OLED_I2C_ADDR, 0, TIMEOUT_TIME);
 1421              		.loc 1 668 0
 1422 0024 0A22     		movs	r2, #10
 1423 0026 0021     		movs	r1, #0
 1424 0028 3C20     		movs	r0, #60
ARM GAS  C:\Users\joshw\AppData\Local\Temp\ccN7PGDU.s 			page 38


 1425 002a FFF7FEFF 		bl	I2C_I2CMasterSendStart
 1426              	.LVL188:
 669:ssd1306_driver.c ****         I2C_I2CMasterWriteByte(I2C_DATA_BYTE, TIMEOUT_TIME);
 1427              		.loc 1 669 0
 1428 002e 0A21     		movs	r1, #10
 1429 0030 4020     		movs	r0, #64
 1430 0032 FFF7FEFF 		bl	I2C_I2CMasterWriteByte
 1431              	.LVL189:
 1432              	.LBB13:
 670:ssd1306_driver.c ****         
 671:ssd1306_driver.c ****         for (uint16_t i = 0; i < chunk; i ++) {
 1433              		.loc 1 671 0
 1434 0036 0024     		movs	r4, #0
 1435 0038 07E0     		b	.L115
 1436              	.LVL190:
 1437              	.L116:
 672:ssd1306_driver.c ****             I2C_I2CMasterWriteByte(*ptr++, TIMEOUT_TIME);
 1438              		.loc 1 672 0 discriminator 3
 1439 003a 6E1C     		adds	r6, r5, #1
 1440              	.LVL191:
 1441 003c 2878     		ldrb	r0, [r5]
 1442 003e 0A21     		movs	r1, #10
 1443 0040 FFF7FEFF 		bl	I2C_I2CMasterWriteByte
 1444              	.LVL192:
 671:ssd1306_driver.c ****             I2C_I2CMasterWriteByte(*ptr++, TIMEOUT_TIME);
 1445              		.loc 1 671 0 discriminator 3
 1446 0044 0134     		adds	r4, r4, #1
 1447              	.LVL193:
 1448 0046 A4B2     		uxth	r4, r4
 1449              	.LVL194:
 1450              		.loc 1 672 0 discriminator 3
 1451 0048 3500     		movs	r5, r6
 1452              	.LVL195:
 1453              	.L115:
 671:ssd1306_driver.c ****             I2C_I2CMasterWriteByte(*ptr++, TIMEOUT_TIME);
 1454              		.loc 1 671 0 discriminator 1
 1455 004a BC42     		cmp	r4, r7
 1456 004c F5D3     		bcc	.L116
 1457              	.LBE13:
 673:ssd1306_driver.c ****         }
 674:ssd1306_driver.c ****         
 675:ssd1306_driver.c ****         I2C_I2CMasterSendStop(TIMEOUT_TIME);
 1458              		.loc 1 675 0
 1459 004e 0A20     		movs	r0, #10
 1460 0050 FFF7FEFF 		bl	I2C_I2CMasterSendStop
 1461              	.LVL196:
 676:ssd1306_driver.c ****         count -= chunk;
 1462              		.loc 1 676 0
 1463 0054 4346     		mov	r3, r8
 1464 0056 DF1B     		subs	r7, r3, r7
 1465              	.LVL197:
 1466 0058 BBB2     		uxth	r3, r7
 1467 005a 9846     		mov	r8, r3
 1468              	.LVL198:
 1469              	.L113:
 1470              	.LBE12:
 665:ssd1306_driver.c ****         uint16_t chunk = (count > I2C_CHUNK_SIZE) ? I2C_CHUNK_SIZE : count;
ARM GAS  C:\Users\joshw\AppData\Local\Temp\ccN7PGDU.s 			page 39


 1471              		.loc 1 665 0
 1472 005c 4346     		mov	r3, r8
 1473 005e 002B     		cmp	r3, #0
 1474 0060 DAD1     		bne	.L117
 677:ssd1306_driver.c ****     }
 678:ssd1306_driver.c **** 
 679:ssd1306_driver.c **** }
 1475              		.loc 1 679 0
 1476              		@ sp needed
 1477              	.LVL199:
 1478              	.LVL200:
 1479 0062 04BC     		pop	{r2}
 1480 0064 9046     		mov	r8, r2
 1481 0066 F0BD     		pop	{r4, r5, r6, r7, pc}
 1482              	.L119:
 1483              		.align	2
 1484              	.L118:
 1485 0068 DC020000 		.word	.LANCHOR2
 1486 006c 00000000 		.word	buffer
 1487              		.cfi_endproc
 1488              	.LFE46:
 1489              		.size	refreshDisplay, .-refreshDisplay
 1490              		.global	contrast
 1491              		.comm	buffer,512,4
 1492              		.global	font
 1493              		.section	.rodata
 1494              		.align	2
 1495              		.set	.LANCHOR1,. + 0
 1496              		.type	init_cmds.6646, %object
 1497              		.size	init_cmds.6646, 26
 1498              	init_cmds.6646:
 1499 0100 AE       		.byte	-82
 1500 0101 D5       		.byte	-43
 1501 0102 80       		.byte	-128
 1502 0103 A8       		.byte	-88
 1503 0104 1F       		.byte	31
 1504 0105 D3       		.byte	-45
 1505 0106 00       		.byte	0
 1506 0107 40       		.byte	64
 1507 0108 8D       		.byte	-115
 1508 0109 14       		.byte	20
 1509 010a 20       		.byte	32
 1510 010b 00       		.byte	0
 1511 010c A1       		.byte	-95
 1512 010d C8       		.byte	-56
 1513 010e DA       		.byte	-38
 1514 010f 02       		.byte	2
 1515 0110 81       		.byte	-127
 1516 0111 8F       		.byte	-113
 1517 0112 D9       		.byte	-39
 1518 0113 F1       		.byte	-15
 1519 0114 DB       		.byte	-37
 1520 0115 40       		.byte	64
 1521 0116 A4       		.byte	-92
 1522 0117 A6       		.byte	-90
 1523 0118 2E       		.byte	46
 1524 0119 AF       		.byte	-81
ARM GAS  C:\Users\joshw\AppData\Local\Temp\ccN7PGDU.s 			page 40


 1525 011a 0000     		.space	2
 1526              		.type	premask.6687, %object
 1527              		.size	premask.6687, 8
 1528              	premask.6687:
 1529 011c 00       		.byte	0
 1530 011d 80       		.byte	-128
 1531 011e C0       		.byte	-64
 1532 011f E0       		.byte	-32
 1533 0120 F0       		.byte	-16
 1534 0121 F8       		.byte	-8
 1535 0122 FC       		.byte	-4
 1536 0123 FE       		.byte	-2
 1537              		.type	postmask.6698, %object
 1538              		.size	postmask.6698, 8
 1539              	postmask.6698:
 1540 0124 00       		.byte	0
 1541 0125 01       		.byte	1
 1542 0126 03       		.byte	3
 1543 0127 07       		.byte	7
 1544 0128 0F       		.byte	15
 1545 0129 1F       		.byte	31
 1546 012a 3F       		.byte	63
 1547 012b 7F       		.byte	127
 1548              		.type	font, %object
 1549              		.size	font, 430
 1550              	font:
 1551 012c 3E       		.byte	62
 1552 012d 51       		.byte	81
 1553 012e 49       		.byte	73
 1554 012f 45       		.byte	69
 1555 0130 3E       		.byte	62
 1556 0131 00       		.byte	0
 1557 0132 42       		.byte	66
 1558 0133 7F       		.byte	127
 1559 0134 40       		.byte	64
 1560 0135 00       		.byte	0
 1561 0136 42       		.byte	66
 1562 0137 61       		.byte	97
 1563 0138 51       		.byte	81
 1564 0139 49       		.byte	73
 1565 013a 46       		.byte	70
 1566 013b 21       		.byte	33
 1567 013c 41       		.byte	65
 1568 013d 45       		.byte	69
 1569 013e 4B       		.byte	75
 1570 013f 31       		.byte	49
 1571 0140 18       		.byte	24
 1572 0141 14       		.byte	20
 1573 0142 12       		.byte	18
 1574 0143 7F       		.byte	127
 1575 0144 10       		.byte	16
 1576 0145 27       		.byte	39
 1577 0146 45       		.byte	69
 1578 0147 45       		.byte	69
 1579 0148 45       		.byte	69
 1580 0149 39       		.byte	57
 1581 014a 3C       		.byte	60
ARM GAS  C:\Users\joshw\AppData\Local\Temp\ccN7PGDU.s 			page 41


 1582 014b 4A       		.byte	74
 1583 014c 49       		.byte	73
 1584 014d 49       		.byte	73
 1585 014e 30       		.byte	48
 1586 014f 01       		.byte	1
 1587 0150 71       		.byte	113
 1588 0151 09       		.byte	9
 1589 0152 05       		.byte	5
 1590 0153 03       		.byte	3
 1591 0154 36       		.byte	54
 1592 0155 49       		.byte	73
 1593 0156 49       		.byte	73
 1594 0157 49       		.byte	73
 1595 0158 36       		.byte	54
 1596 0159 06       		.byte	6
 1597 015a 49       		.byte	73
 1598 015b 49       		.byte	73
 1599 015c 29       		.byte	41
 1600 015d 1E       		.byte	30
 1601 015e 7E       		.byte	126
 1602 015f 11       		.byte	17
 1603 0160 11       		.byte	17
 1604 0161 11       		.byte	17
 1605 0162 7E       		.byte	126
 1606 0163 7F       		.byte	127
 1607 0164 49       		.byte	73
 1608 0165 49       		.byte	73
 1609 0166 49       		.byte	73
 1610 0167 36       		.byte	54
 1611 0168 3E       		.byte	62
 1612 0169 41       		.byte	65
 1613 016a 41       		.byte	65
 1614 016b 41       		.byte	65
 1615 016c 22       		.byte	34
 1616 016d 7F       		.byte	127
 1617 016e 41       		.byte	65
 1618 016f 41       		.byte	65
 1619 0170 22       		.byte	34
 1620 0171 1C       		.byte	28
 1621 0172 7F       		.byte	127
 1622 0173 49       		.byte	73
 1623 0174 49       		.byte	73
 1624 0175 49       		.byte	73
 1625 0176 41       		.byte	65
 1626 0177 7F       		.byte	127
 1627 0178 09       		.byte	9
 1628 0179 09       		.byte	9
 1629 017a 09       		.byte	9
 1630 017b 01       		.byte	1
 1631 017c 3E       		.byte	62
 1632 017d 41       		.byte	65
 1633 017e 49       		.byte	73
 1634 017f 49       		.byte	73
 1635 0180 7A       		.byte	122
 1636 0181 7F       		.byte	127
 1637 0182 08       		.byte	8
 1638 0183 08       		.byte	8
ARM GAS  C:\Users\joshw\AppData\Local\Temp\ccN7PGDU.s 			page 42


 1639 0184 08       		.byte	8
 1640 0185 7F       		.byte	127
 1641 0186 00       		.byte	0
 1642 0187 41       		.byte	65
 1643 0188 7F       		.byte	127
 1644 0189 41       		.byte	65
 1645 018a 00       		.byte	0
 1646 018b 20       		.byte	32
 1647 018c 40       		.byte	64
 1648 018d 41       		.byte	65
 1649 018e 3F       		.byte	63
 1650 018f 01       		.byte	1
 1651 0190 7F       		.byte	127
 1652 0191 08       		.byte	8
 1653 0192 14       		.byte	20
 1654 0193 22       		.byte	34
 1655 0194 41       		.byte	65
 1656 0195 7F       		.byte	127
 1657 0196 40       		.byte	64
 1658 0197 40       		.byte	64
 1659 0198 40       		.byte	64
 1660 0199 40       		.byte	64
 1661 019a 7F       		.byte	127
 1662 019b 02       		.byte	2
 1663 019c 0C       		.byte	12
 1664 019d 02       		.byte	2
 1665 019e 7F       		.byte	127
 1666 019f 7F       		.byte	127
 1667 01a0 04       		.byte	4
 1668 01a1 08       		.byte	8
 1669 01a2 10       		.byte	16
 1670 01a3 7F       		.byte	127
 1671 01a4 3E       		.byte	62
 1672 01a5 41       		.byte	65
 1673 01a6 41       		.byte	65
 1674 01a7 41       		.byte	65
 1675 01a8 3E       		.byte	62
 1676 01a9 7F       		.byte	127
 1677 01aa 09       		.byte	9
 1678 01ab 09       		.byte	9
 1679 01ac 09       		.byte	9
 1680 01ad 06       		.byte	6
 1681 01ae 3E       		.byte	62
 1682 01af 41       		.byte	65
 1683 01b0 51       		.byte	81
 1684 01b1 21       		.byte	33
 1685 01b2 5E       		.byte	94
 1686 01b3 7F       		.byte	127
 1687 01b4 09       		.byte	9
 1688 01b5 19       		.byte	25
 1689 01b6 29       		.byte	41
 1690 01b7 46       		.byte	70
 1691 01b8 46       		.byte	70
 1692 01b9 49       		.byte	73
 1693 01ba 49       		.byte	73
 1694 01bb 49       		.byte	73
 1695 01bc 31       		.byte	49
ARM GAS  C:\Users\joshw\AppData\Local\Temp\ccN7PGDU.s 			page 43


 1696 01bd 01       		.byte	1
 1697 01be 01       		.byte	1
 1698 01bf 7F       		.byte	127
 1699 01c0 01       		.byte	1
 1700 01c1 01       		.byte	1
 1701 01c2 3F       		.byte	63
 1702 01c3 40       		.byte	64
 1703 01c4 40       		.byte	64
 1704 01c5 40       		.byte	64
 1705 01c6 3F       		.byte	63
 1706 01c7 1F       		.byte	31
 1707 01c8 20       		.byte	32
 1708 01c9 40       		.byte	64
 1709 01ca 20       		.byte	32
 1710 01cb 1F       		.byte	31
 1711 01cc 7F       		.byte	127
 1712 01cd 20       		.byte	32
 1713 01ce 18       		.byte	24
 1714 01cf 20       		.byte	32
 1715 01d0 7F       		.byte	127
 1716 01d1 63       		.byte	99
 1717 01d2 14       		.byte	20
 1718 01d3 08       		.byte	8
 1719 01d4 14       		.byte	20
 1720 01d5 63       		.byte	99
 1721 01d6 03       		.byte	3
 1722 01d7 04       		.byte	4
 1723 01d8 78       		.byte	120
 1724 01d9 04       		.byte	4
 1725 01da 03       		.byte	3
 1726 01db 61       		.byte	97
 1727 01dc 51       		.byte	81
 1728 01dd 49       		.byte	73
 1729 01de 45       		.byte	69
 1730 01df 43       		.byte	67
 1731 01e0 20       		.byte	32
 1732 01e1 54       		.byte	84
 1733 01e2 54       		.byte	84
 1734 01e3 54       		.byte	84
 1735 01e4 78       		.byte	120
 1736 01e5 7F       		.byte	127
 1737 01e6 48       		.byte	72
 1738 01e7 44       		.byte	68
 1739 01e8 44       		.byte	68
 1740 01e9 38       		.byte	56
 1741 01ea 38       		.byte	56
 1742 01eb 44       		.byte	68
 1743 01ec 44       		.byte	68
 1744 01ed 44       		.byte	68
 1745 01ee 20       		.byte	32
 1746 01ef 38       		.byte	56
 1747 01f0 44       		.byte	68
 1748 01f1 44       		.byte	68
 1749 01f2 48       		.byte	72
 1750 01f3 7F       		.byte	127
 1751 01f4 38       		.byte	56
 1752 01f5 54       		.byte	84
ARM GAS  C:\Users\joshw\AppData\Local\Temp\ccN7PGDU.s 			page 44


 1753 01f6 54       		.byte	84
 1754 01f7 54       		.byte	84
 1755 01f8 18       		.byte	24
 1756 01f9 08       		.byte	8
 1757 01fa 7E       		.byte	126
 1758 01fb 09       		.byte	9
 1759 01fc 01       		.byte	1
 1760 01fd 02       		.byte	2
 1761 01fe 0C       		.byte	12
 1762 01ff 52       		.byte	82
 1763 0200 52       		.byte	82
 1764 0201 52       		.byte	82
 1765 0202 3E       		.byte	62
 1766 0203 7F       		.byte	127
 1767 0204 08       		.byte	8
 1768 0205 04       		.byte	4
 1769 0206 04       		.byte	4
 1770 0207 78       		.byte	120
 1771 0208 00       		.byte	0
 1772 0209 44       		.byte	68
 1773 020a 7D       		.byte	125
 1774 020b 40       		.byte	64
 1775 020c 00       		.byte	0
 1776 020d 20       		.byte	32
 1777 020e 40       		.byte	64
 1778 020f 44       		.byte	68
 1779 0210 3D       		.byte	61
 1780 0211 00       		.byte	0
 1781 0212 7F       		.byte	127
 1782 0213 10       		.byte	16
 1783 0214 28       		.byte	40
 1784 0215 44       		.byte	68
 1785 0216 00       		.byte	0
 1786 0217 00       		.byte	0
 1787 0218 41       		.byte	65
 1788 0219 7F       		.byte	127
 1789 021a 40       		.byte	64
 1790 021b 00       		.byte	0
 1791 021c 7C       		.byte	124
 1792 021d 04       		.byte	4
 1793 021e 18       		.byte	24
 1794 021f 04       		.byte	4
 1795 0220 78       		.byte	120
 1796 0221 7C       		.byte	124
 1797 0222 08       		.byte	8
 1798 0223 04       		.byte	4
 1799 0224 04       		.byte	4
 1800 0225 78       		.byte	120
 1801 0226 38       		.byte	56
 1802 0227 44       		.byte	68
 1803 0228 44       		.byte	68
 1804 0229 44       		.byte	68
 1805 022a 38       		.byte	56
 1806 022b 7C       		.byte	124
 1807 022c 14       		.byte	20
 1808 022d 14       		.byte	20
 1809 022e 14       		.byte	20
ARM GAS  C:\Users\joshw\AppData\Local\Temp\ccN7PGDU.s 			page 45


 1810 022f 08       		.byte	8
 1811 0230 08       		.byte	8
 1812 0231 14       		.byte	20
 1813 0232 14       		.byte	20
 1814 0233 18       		.byte	24
 1815 0234 7C       		.byte	124
 1816 0235 7C       		.byte	124
 1817 0236 08       		.byte	8
 1818 0237 04       		.byte	4
 1819 0238 04       		.byte	4
 1820 0239 08       		.byte	8
 1821 023a 48       		.byte	72
 1822 023b 54       		.byte	84
 1823 023c 54       		.byte	84
 1824 023d 54       		.byte	84
 1825 023e 20       		.byte	32
 1826 023f 04       		.byte	4
 1827 0240 3F       		.byte	63
 1828 0241 44       		.byte	68
 1829 0242 40       		.byte	64
 1830 0243 20       		.byte	32
 1831 0244 3C       		.byte	60
 1832 0245 40       		.byte	64
 1833 0246 40       		.byte	64
 1834 0247 20       		.byte	32
 1835 0248 7C       		.byte	124
 1836 0249 1C       		.byte	28
 1837 024a 20       		.byte	32
 1838 024b 40       		.byte	64
 1839 024c 20       		.byte	32
 1840 024d 1C       		.byte	28
 1841 024e 3C       		.byte	60
 1842 024f 40       		.byte	64
 1843 0250 30       		.byte	48
 1844 0251 40       		.byte	64
 1845 0252 3C       		.byte	60
 1846 0253 44       		.byte	68
 1847 0254 28       		.byte	40
 1848 0255 10       		.byte	16
 1849 0256 28       		.byte	40
 1850 0257 44       		.byte	68
 1851 0258 0C       		.byte	12
 1852 0259 50       		.byte	80
 1853 025a 50       		.byte	80
 1854 025b 50       		.byte	80
 1855 025c 3C       		.byte	60
 1856 025d 44       		.byte	68
 1857 025e 64       		.byte	100
 1858 025f 54       		.byte	84
 1859 0260 4C       		.byte	76
 1860 0261 44       		.byte	68
 1861 0262 00       		.byte	0
 1862 0263 00       		.byte	0
 1863 0264 00       		.byte	0
 1864 0265 00       		.byte	0
 1865 0266 00       		.byte	0
 1866 0267 00       		.byte	0
ARM GAS  C:\Users\joshw\AppData\Local\Temp\ccN7PGDU.s 			page 46


 1867 0268 00       		.byte	0
 1868 0269 5F       		.byte	95
 1869 026a 00       		.byte	0
 1870 026b 00       		.byte	0
 1871 026c 00       		.byte	0
 1872 026d 60       		.byte	96
 1873 026e 60       		.byte	96
 1874 026f 00       		.byte	0
 1875 0270 00       		.byte	0
 1876 0271 00       		.byte	0
 1877 0272 80       		.byte	-128
 1878 0273 60       		.byte	96
 1879 0274 00       		.byte	0
 1880 0275 00       		.byte	0
 1881 0276 00       		.byte	0
 1882 0277 36       		.byte	54
 1883 0278 36       		.byte	54
 1884 0279 00       		.byte	0
 1885 027a 00       		.byte	0
 1886 027b 00       		.byte	0
 1887 027c 80       		.byte	-128
 1888 027d 36       		.byte	54
 1889 027e 36       		.byte	54
 1890 027f 00       		.byte	0
 1891 0280 02       		.byte	2
 1892 0281 01       		.byte	1
 1893 0282 51       		.byte	81
 1894 0283 09       		.byte	9
 1895 0284 06       		.byte	6
 1896 0285 08       		.byte	8
 1897 0286 08       		.byte	8
 1898 0287 08       		.byte	8
 1899 0288 08       		.byte	8
 1900 0289 08       		.byte	8
 1901 028a 80       		.byte	-128
 1902 028b 80       		.byte	-128
 1903 028c 80       		.byte	-128
 1904 028d 80       		.byte	-128
 1905 028e 80       		.byte	-128
 1906 028f 60       		.byte	96
 1907 0290 10       		.byte	16
 1908 0291 08       		.byte	8
 1909 0292 04       		.byte	4
 1910 0293 03       		.byte	3
 1911 0294 08       		.byte	8
 1912 0295 08       		.byte	8
 1913 0296 3E       		.byte	62
 1914 0297 08       		.byte	8
 1915 0298 08       		.byte	8
 1916 0299 14       		.byte	20
 1917 029a 14       		.byte	20
 1918 029b 14       		.byte	20
 1919 029c 14       		.byte	20
 1920 029d 14       		.byte	20
 1921 029e 14       		.byte	20
 1922 029f 08       		.byte	8
 1923 02a0 3E       		.byte	62
ARM GAS  C:\Users\joshw\AppData\Local\Temp\ccN7PGDU.s 			page 47


 1924 02a1 08       		.byte	8
 1925 02a2 14       		.byte	20
 1926 02a3 62       		.byte	98
 1927 02a4 64       		.byte	100
 1928 02a5 08       		.byte	8
 1929 02a6 13       		.byte	19
 1930 02a7 23       		.byte	35
 1931 02a8 00       		.byte	0
 1932 02a9 1C       		.byte	28
 1933 02aa 22       		.byte	34
 1934 02ab 41       		.byte	65
 1935 02ac 00       		.byte	0
 1936 02ad 00       		.byte	0
 1937 02ae 41       		.byte	65
 1938 02af 22       		.byte	34
 1939 02b0 1C       		.byte	28
 1940 02b1 00       		.byte	0
 1941 02b2 00       		.byte	0
 1942 02b3 7F       		.byte	127
 1943 02b4 41       		.byte	65
 1944 02b5 41       		.byte	65
 1945 02b6 00       		.byte	0
 1946 02b7 00       		.byte	0
 1947 02b8 41       		.byte	65
 1948 02b9 41       		.byte	65
 1949 02ba 7F       		.byte	127
 1950 02bb 00       		.byte	0
 1951 02bc 03       		.byte	3
 1952 02bd 00       		.byte	0
 1953 02be 03       		.byte	3
 1954 02bf 00       		.byte	0
 1955 02c0 00       		.byte	0
 1956 02c1 00       		.byte	0
 1957 02c2 03       		.byte	3
 1958 02c3 00       		.byte	0
 1959 02c4 00       		.byte	0
 1960 02c5 00       		.byte	0
 1961 02c6 14       		.byte	20
 1962 02c7 7F       		.byte	127
 1963 02c8 14       		.byte	20
 1964 02c9 7F       		.byte	127
 1965 02ca 14       		.byte	20
 1966 02cb 24       		.byte	36
 1967 02cc 2A       		.byte	42
 1968 02cd 7F       		.byte	127
 1969 02ce 2A       		.byte	42
 1970 02cf 12       		.byte	18
 1971 02d0 36       		.byte	54
 1972 02d1 49       		.byte	73
 1973 02d2 55       		.byte	85
 1974 02d3 22       		.byte	34
 1975 02d4 50       		.byte	80
 1976 02d5 3E       		.byte	62
 1977 02d6 41       		.byte	65
 1978 02d7 5D       		.byte	93
 1979 02d8 55       		.byte	85
 1980 02d9 1E       		.byte	30
ARM GAS  C:\Users\joshw\AppData\Local\Temp\ccN7PGDU.s 			page 48


 1981 02da 0000     		.align	2
 1982              		.set	.LANCHOR2,. + 0
 1983              		.type	dlist1.6766, %object
 1984              		.size	dlist1.6766, 6
 1985              	dlist1.6766:
 1986 02dc 22       		.byte	34
 1987 02dd 00       		.byte	0
 1988 02de FF       		.byte	-1
 1989 02df 21       		.byte	33
 1990 02e0 00       		.byte	0
 1991 02e1 7F       		.byte	127
 1992              		.data
 1993              		.set	.LANCHOR0,. + 0
 1994              		.type	contrast, %object
 1995              		.size	contrast, 1
 1996              	contrast:
 1997 0000 8F       		.byte	-113
 1998              		.section	.rodata.str1.4,"aMS",%progbits,1
 1999              		.align	2
 2000              	.LC2:
 2001 0000 53746172 		.ascii	"Starting init\012\015\000"
 2001      74696E67 
 2001      20696E69 
 2001      740A0D00 
 2002              	.LC4:
 2003 0010 436C6561 		.ascii	"Cleared Display\012\015\000"
 2003      72656420 
 2003      44697370 
 2003      6C61790A 
 2003      0D00
 2004 0022 0000     		.space	2
 2005              	.LC7:
 2006 0024 53656E74 		.ascii	"Sent Commands\012\015\000"
 2006      20436F6D 
 2006      6D616E64 
 2006      730A0D00 
 2007              		.text
 2008              	.Letext0:
 2009              		.file 2 "c:\\program files (x86)\\cypress\\psoc creator\\4.4\\psoc creator\\import\\gnu\\arm\\5.4.
 2010              		.file 3 "c:\\program files (x86)\\cypress\\psoc creator\\4.4\\psoc creator\\import\\gnu\\arm\\5.4.
 2011              		.file 4 "Generated_Source\\PSoC4/I2C_I2C.h"
 2012              		.file 5 "Generated_Source\\PSoC4/UART_SPI_UART.h"
 2013              		.file 6 "Generated_Source\\PSoC4/I2C.h"
 2014              		.file 7 "Generated_Source\\PSoC4/CyLib.h"